//Deviec:FT62F08X
//-----------------------Variable---------------------------------
		_unionAllKeyFlag		EQU		47H
		_unionAllTimeFlag		EQU		48H
		_varKeyPushCnt		EQU		32H
		_readKeyNum		EQU		C9H
		_toSend		EQU		CBH
		_senddata		EQU		46H
		_key_status		EQU		C7H
		_flag		EQU		34H
		_receivedata		EQU		AFH
		_k		EQU		45H
		_fmd_OriginalData		EQU		51H
		_fmd_ReferenceData		EQU		55H
		_fmd_ResultData		EQU		57H
		_fmd_ResultDataH		EQU		59H
		_fmd_Null0		EQU		50H
		_fmd_Null1		EQU		53H
		_fmd_Null2		EQU		54H
		_fmd_Null3		EQU		5AH
		_fmd_antishaketimecount		EQU		3FH
		_fmd_antishaketimecount1		EQU		40H
		_fmd_Keystatus		EQU		2CH
		_fmd_Keystatus1		EQU		2EH
		_fmd_Keystatus2		EQU		30H
		_fmd_KeyBuffPress		EQU		36H
		_fmd_KeyBuffUnPress		EQU		37H
		_fmd_channels		EQU		4BH
		_fmd_a		EQU		4AH
		_fmd_a1		EQU		3CH
		_fmd_a2		EQU		3DH
		_fmd_a3		EQU		3EH
		_fmd_u		EQU		42H
		_fmd_thedeathcount		EQU		C1H
		_fmd_thedeathcount1		EQU		C3H
		_fmd_thedeathcount2		EQU		C5H
		_fmd_currentCount		EQU		41H
		_fmd_TouchDataBuff_Key		EQU		20H
		_fmd_KeyDValue_Key		EQU		28H
		_fmd_KeyDValue_Key_base		EQU		B9H
		_fmd_KeyDValue_Key_baseBuff		EQU		BDH
		_fmd_theUsedChannel		EQU		A0H
		_fmd_f_keydown_flag		EQU		39FH
		_fmd_f_firstdown		EQU		7DH
		_fmd_f_firstloop		EQU		7DH
		_fmd_f_main_key		EQU		7DH
		_fmd_f_forbidden		EQU		7DH
		_fmd_updataFlag		EQU		43H
		_fmd_TestCount		EQU		3BH
		_fmd_PressOff		EQU		38H
		_fmd_PressOffCount		EQU		39H
		_fmd_UpTouchCount		EQU		D8H
		_fmd_DownTouchCount		EQU		65H
		_fmd_HfreqOn		EQU		35H
		_fmd_AntiWaterBit		EQU		49H
		_fmd_x		EQU		44H
		_fmd_UpDataTime		EQU		D6H
		_fmd_DownDataTime		EQU		63H
		_fmd_Startgx		EQU		3AH
//-----------------------Variable END---------------------------------
		ORG		0000H
		MOVLP 	0H 			//0000 	0180
		LJUMP 	10H 			//0001 	3810
		ORG		0003H
		NOP 					//0003 	1000
		MOVLP 	0H 			//0004 	0180

		//;main.c: 93: if(T4UIE && T4UIF)
		MOVLB 	2H 			//0005 	1022
		BTSC 	12H, 0H 		//0006 	2812
		BTSS 	13H, 0H 		//0007 	2C13
		RETI 					//0008 	1009
		LDWI 	8H 			//0009 	0008

		//;main.c: 94: {
		//;main.c: 95: T4UIF = 1;
		BSR 	13H, 0H 			//000A 	2413
		ORG		000BH

		//;main.c: 97: RA3 = ~RA3;
		MOVLB 	0H 			//000B 	1020
		XORWR 	CH, 1H 		//000C 	168C

		//;main.c: 100: TouchTimeCount++;
		LDWI 	FFH 			//000D 	00FF
		STR 	48H 			//000E 	10C8
		RETI 					//000F 	1009
		CLRF 	8H 			//0010 	1188
		MOVLP 	DH 			//0011 	018D
		LJUMP 	5DFH 			//0012 	3DDF
		ORG		0051H
		MOVLB 	4H 			//0051 	1064
		CLRF 	0H 			//0052 	1180
		ADDFSR 	0H, 1H 		//0053 	0101
		LDWI 	1H 			//0054 	0001
		SUBWR 	7EH, 1H 		//0055 	12FE
		LDWI 	0H 			//0056 	0000
		SUBWFB 	7FH, 1H 		//0057 	0BFF
		LDR 	7FH, 0H 			//0058 	187F
		ORG		0059H
		IORWR 	7EH, 0H 		//0059 	147E
		BTSC 	3H, 2H 			//005A 	2903
		RETW 	0H 			//005B 	0400
		LJUMP 	52H 			//005C 	3852
		LDWI 	4H 			//005D 	0004
		MOVLB 	0H 			//005E 	1020
		SUBWR 	4AH, 0H 		//005F 	124A
		BTSC 	3H, 0H 			//0060 	2803
		ORG		0061H
		LJUMP 	C7H 			//0061 	38C7
		LDWI 	4H 			//0062 	0004
		CLRF 	49H 			//0063 	11C9
		STR 	44H 			//0064 	10C4
		LDWI 	FFH 			//0065 	00FF
		STR 	7BH 			//0066 	10FB
		CLRF 	7CH 			//0067 	11FC
		INCR 	44H, 0H 		//0068 	1A44
		ORG		0069H
		LJUMP 	6CH 			//0069 	386C
		LSRF 	7CH, 1H 		//006A 	06FC
		RRR 	7BH, 1H 			//006B 	1CFB
		DECRSZ 	9H, 1H 		//006C 	1B89
		LJUMP 	6AH 			//006D 	386A
		BTSS 	7BH, 0H 		//006E 	2C7B
		LJUMP 	73H 			//006F 	3873
		LDR 	44H, 0H 			//0070 	1844
		ORG		0071H
		ADDWI 	FCH 			//0071 	0EFC
		STR 	49H 			//0072 	10C9
		LDWI 	8H 			//0073 	0008
		INCR 	44H, 1H 		//0074 	1AC4
		SUBWR 	44H, 0H 		//0075 	1244
		BTSS 	3H, 0H 			//0076 	2C03
		LJUMP 	65H 			//0077 	3865
		LDWI 	1H 			//0078 	0001
		ORG		0079H
		STR 	7BH 			//0079 	10FB
		INCR 	4AH, 0H 		//007A 	1A4A
		LJUMP 	7DH 			//007B 	387D
		LSLF 	7BH, 1H 		//007C 	05FB
		DECRSZ 	9H, 1H 		//007D 	1B89
		LJUMP 	7CH 			//007E 	387C
		LDR 	7BH, 0H 			//007F 	187B
		LCALL 	5FEH 			//0080 	35FE
		ORG		0081H
		MOVLP 	0H 			//0081 	0180
		LCALL 	770H 			//0082 	3770
		MOVLP 	0H 			//0083 	0180
		LCALL 	583H 			//0084 	3583
		MOVLP 	0H 			//0085 	0180
		STR 	16H 			//0086 	1096
		MOVLB 	0H 			//0087 	1020
		LDR 	49H, 0H 			//0088 	1849
		ORG		0089H
		LCALL 	58CH 			//0089 	358C
		MOVLP 	0H 			//008A 	0180
		STR 	18H 			//008B 	1098
		LDWI 	C0H 			//008C 	00C0
		STR 	1CH 			//008D 	109C
		LDWI 	3FH 			//008E 	003F
		LCALL 	231H 			//008F 	3231
		MOVLP 	0H 			//0090 	0180
		ORG		0091H
		BSR 	DH, 5H 			//0091 	268D
		BTSS 	DH, 6H 			//0092 	2F0D
		LJUMP 	92H 			//0093 	3892
		MOVLB 	1FH 			//0094 	103F
		LCALL 	7EDH 			//0095 	37ED
		MOVLP 	0H 			//0096 	0180
		LCALL 	786H 			//0097 	3786
		MOVLP 	0H 			//0098 	0180
		ORG		0099H
		BTSC 	3H, 0H 			//0099 	2803
		INCR 	56H, 1H 		//009A 	1AD6
		LCALL 	1F0H 			//009B 	31F0
		MOVLP 	0H 			//009C 	0180
		LCALL 	550H 			//009D 	3550
		MOVLP 	0H 			//009E 	0180
		LCALL 	770H 			//009F 	3770
		MOVLP 	0H 			//00A0 	0180
		ORG		00A1H
		LCALL 	583H 			//00A1 	3583
		MOVLP 	0H 			//00A2 	0180
		STR 	16H 			//00A3 	1096
		MOVLB 	0H 			//00A4 	1020
		LDR 	49H, 0H 			//00A5 	1849
		LCALL 	58CH 			//00A6 	358C
		MOVLP 	0H 			//00A7 	0180
		STR 	18H 			//00A8 	1098
		ORG		00A9H
		LDWI 	C0H 			//00A9 	00C0
		STR 	1CH 			//00AA 	109C
		LDWI 	52H 			//00AB 	0052
		LCALL 	231H 			//00AC 	3231
		MOVLP 	0H 			//00AD 	0180
		BSR 	DH, 5H 			//00AE 	268D
		BTSS 	DH, 6H 			//00AF 	2F0D
		LJUMP 	AFH 			//00B0 	38AF
		ORG		00B1H
		MOVLB 	1FH 			//00B1 	103F
		LCALL 	7EDH 			//00B2 	37ED
		MOVLP 	0H 			//00B3 	0180
		LCALL 	786H 			//00B4 	3786
		MOVLP 	0H 			//00B5 	0180
		BTSC 	3H, 0H 			//00B6 	2803
		INCR 	56H, 1H 		//00B7 	1AD6
		LCALL 	1F0H 			//00B8 	31F0
		ORG		00B9H
		MOVLP 	0H 			//00B9 	0180
		LCALL 	5B5H 			//00BA 	35B5
		MOVLP 	0H 			//00BB 	0180
		LCALL 	5A4H 			//00BC 	35A4
		MOVLP 	0H 			//00BD 	0180
		BTSC 	3H, 2H 			//00BE 	2903
		LJUMP 	C4H 			//00BF 	38C4
		LDR 	43H, 0H 			//00C0 	1843
		ORG		00C1H
		XOWI 	2H 			//00C1 	0A02
		BTSS 	3H, 2H 			//00C2 	2D03
		LJUMP 	197H 			//00C3 	3997
		CLRF 	35H 			//00C4 	11B5
		INCR 	35H, 1H 		//00C5 	1AB5
		LJUMP 	197H 			//00C6 	3997
		LDWI 	8H 			//00C7 	0008
		SUBWR 	4AH, 0H 		//00C8 	124A
		ORG		00C9H
		BTSC 	3H, 0H 			//00C9 	2803
		LJUMP 	11CH 			//00CA 	391C
		CLRF 	49H 			//00CB 	11C9
		CLRF 	44H 			//00CC 	11C4
		LDWI 	FFH 			//00CD 	00FF
		STR 	7BH 			//00CE 	10FB
		CLRF 	7CH 			//00CF 	11FC
		INCR 	44H, 0H 		//00D0 	1A44
		ORG		00D1H
		LJUMP 	D4H 			//00D1 	38D4
		LSRF 	7CH, 1H 		//00D2 	06FC
		RRR 	7BH, 1H 			//00D3 	1CFB
		DECRSZ 	9H, 1H 		//00D4 	1B89
		LJUMP 	D2H 			//00D5 	38D2
		BTSS 	7BH, 0H 		//00D6 	2C7B
		LJUMP 	DAH 			//00D7 	38DA
		LDR 	44H, 0H 			//00D8 	1844
		ORG		00D9H
		STR 	49H 			//00D9 	10C9
		LDWI 	3H 			//00DA 	0003
		INCR 	44H, 1H 		//00DB 	1AC4
		SUBWR 	44H, 0H 		//00DC 	1244
		BTSS 	3H, 0H 			//00DD 	2C03
		LJUMP 	CDH 			//00DE 	38CD
		LDWI 	1H 			//00DF 	0001
		STR 	7BH 			//00E0 	10FB
		ORG		00E1H
		INCR 	4AH, 0H 		//00E1 	1A4A
		LJUMP 	E4H 			//00E2 	38E4
		LSLF 	7BH, 1H 		//00E3 	05FB
		DECRSZ 	9H, 1H 		//00E4 	1B89
		LJUMP 	E3H 			//00E5 	38E3
		LDR 	7BH, 0H 			//00E6 	187B
		LCALL 	5FEH 			//00E7 	35FE
		MOVLP 	0H 			//00E8 	0180
		ORG		00E9H
		LCALL 	770H 			//00E9 	3770
		MOVLP 	0H 			//00EA 	0180
		LCALL 	583H 			//00EB 	3583
		MOVLP 	0H 			//00EC 	0180
		STR 	18H 			//00ED 	1098
		MOVLB 	0H 			//00EE 	1020
		LDR 	49H, 0H 			//00EF 	1849
		LCALL 	58CH 			//00F0 	358C
		ORG		00F1H
		MOVLP 	0H 			//00F1 	0180
		STR 	16H 			//00F2 	1096
		LDWI 	C0H 			//00F3 	00C0
		STR 	1CH 			//00F4 	109C
		LDWI 	3FH 			//00F5 	003F
		LCALL 	231H 			//00F6 	3231
		MOVLP 	0H 			//00F7 	0180
		BSR 	DH, 5H 			//00F8 	268D
		ORG		00F9H
		BTSS 	DH, 6H 			//00F9 	2F0D
		LJUMP 	F9H 			//00FA 	38F9
		MOVLB 	1FH 			//00FB 	103F
		LCALL 	7F4H 			//00FC 	37F4
		MOVLP 	0H 			//00FD 	0180
		LCALL 	786H 			//00FE 	3786
		MOVLP 	0H 			//00FF 	0180
		BTSC 	3H, 0H 			//0100 	2803
		ORG		0101H
		INCR 	56H, 1H 		//0101 	1AD6
		LCALL 	1F0H 			//0102 	31F0
		MOVLP 	0H 			//0103 	0180
		LCALL 	550H 			//0104 	3550
		MOVLP 	0H 			//0105 	0180
		LCALL 	770H 			//0106 	3770
		MOVLP 	0H 			//0107 	0180
		LCALL 	583H 			//0108 	3583
		ORG		0109H
		MOVLP 	0H 			//0109 	0180
		STR 	18H 			//010A 	1098
		MOVLB 	0H 			//010B 	1020
		LDR 	49H, 0H 			//010C 	1849
		LCALL 	58CH 			//010D 	358C
		MOVLP 	0H 			//010E 	0180
		STR 	16H 			//010F 	1096
		LDWI 	C0H 			//0110 	00C0
		ORG		0111H
		STR 	1CH 			//0111 	109C
		LDWI 	52H 			//0112 	0052
		LCALL 	231H 			//0113 	3231
		MOVLP 	0H 			//0114 	0180
		BSR 	DH, 5H 			//0115 	268D
		BTSS 	DH, 6H 			//0116 	2F0D
		LJUMP 	116H 			//0117 	3916
		MOVLB 	1FH 			//0118 	103F
		ORG		0119H
		LCALL 	7F4H 			//0119 	37F4
		MOVLP 	0H 			//011A 	0180
		LJUMP 	187H 			//011B 	3987
		LDWI 	CH 			//011C 	000C
		SUBWR 	4AH, 0H 		//011D 	124A
		BTSC 	3H, 0H 			//011E 	2803
		LJUMP 	160H 			//011F 	3960
		MOVLB 	7H 			//0120 	1027
		ORG		0121H
		LCALL 	5E7H 			//0121 	35E7
		MOVLP 	0H 			//0122 	0180
		LCALL 	770H 			//0123 	3770
		MOVLP 	0H 			//0124 	0180
		LDWI 	3FH 			//0125 	003F
		MOVLB 	7H 			//0126 	1027
		STR 	14H 			//0127 	1094
		STR 	15H 			//0128 	1095
		ORG		0129H
		LCALL 	583H 			//0129 	3583
		MOVLP 	0H 			//012A 	0180
		STR 	1AH 			//012B 	109A
		LDWI 	10H 			//012C 	0010
		STR 	1BH 			//012D 	109B
		LDWI 	18H 			//012E 	0018
		STR 	1DH 			//012F 	109D
		LDWI 	C0H 			//0130 	00C0
		ORG		0131H
		STR 	1CH 			//0131 	109C
		BSR 	DH, 5H 			//0132 	268D
		BTSS 	DH, 6H 			//0133 	2F0D
		LJUMP 	133H 			//0134 	3933
		MOVLB 	1FH 			//0135 	103F
		LCALL 	7A9H 			//0136 	37A9
		MOVLP 	0H 			//0137 	0180
		LCALL 	786H 			//0138 	3786
		ORG		0139H
		MOVLP 	0H 			//0139 	0180
		BTSC 	3H, 0H 			//013A 	2803
		INCR 	56H, 1H 		//013B 	1AD6
		LCALL 	1F0H 			//013C 	31F0
		MOVLP 	0H 			//013D 	0180
		LCALL 	550H 			//013E 	3550
		MOVLP 	0H 			//013F 	0180
		LCALL 	770H 			//0140 	3770
		ORG		0141H
		MOVLP 	0H 			//0141 	0180
		LDWI 	52H 			//0142 	0052
		MOVLB 	7H 			//0143 	1027
		STR 	14H 			//0144 	1094
		LCALL 	583H 			//0145 	3583
		MOVLP 	0H 			//0146 	0180
		STR 	1AH 			//0147 	109A
		LDWI 	1H 			//0148 	0001
		ORG		0149H
		STR 	7BH 			//0149 	10FB
		MOVLB 	0H 			//014A 	1020
		LDR 	4AH, 0H 			//014B 	184A
		ADDWI 	F8H 			//014C 	0EF8
		INCR 	9H, 1H 			//014D 	1A89
		LJUMP 	150H 			//014E 	3950
		LSLF 	7BH, 1H 		//014F 	05FB
		DECRSZ 	9H, 1H 		//0150 	1B89
		ORG		0151H
		LJUMP 	14FH 			//0151 	394F
		LDR 	7BH, 0H 			//0152 	187B
		IORWI 	10H 			//0153 	0810
		MOVLB 	7H 			//0154 	1027
		STR 	1BH 			//0155 	109B
		LDWI 	52H 			//0156 	0052
		STR 	15H 			//0157 	1095
		LDWI 	C0H 			//0158 	00C0
		ORG		0159H
		STR 	1CH 			//0159 	109C
		LDWI 	18H 			//015A 	0018
		STR 	1DH 			//015B 	109D
		BSR 	DH, 5H 			//015C 	268D
		BTSS 	DH, 6H 			//015D 	2F0D
		LJUMP 	15DH 			//015E 	395D
		LJUMP 	184H 			//015F 	3984
		MOVLB 	7H 			//0160 	1027
		ORG		0161H
		LCALL 	5E7H 			//0161 	35E7
		MOVLP 	0H 			//0162 	0180
		LCALL 	770H 			//0163 	3770
		MOVLP 	0H 			//0164 	0180
		LDWI 	3FH 			//0165 	003F
		LCALL 	5C6H 			//0166 	35C6
		MOVLP 	0H 			//0167 	0180
		LCALL 	583H 			//0168 	3583
		ORG		0169H
		MOVLP 	0H 			//0169 	0180
		STR 	1CH 			//016A 	109C
		BSR 	DH, 5H 			//016B 	268D
		BTSS 	DH, 6H 			//016C 	2F0D
		LJUMP 	16CH 			//016D 	396C
		MOVLB 	1FH 			//016E 	103F
		LCALL 	7A9H 			//016F 	37A9
		MOVLP 	0H 			//0170 	0180
		ORG		0171H
		LCALL 	786H 			//0171 	3786
		MOVLP 	0H 			//0172 	0180
		BTSC 	3H, 0H 			//0173 	2803
		INCR 	56H, 1H 		//0174 	1AD6
		LCALL 	1F0H 			//0175 	31F0
		MOVLP 	0H 			//0176 	0180
		LCALL 	550H 			//0177 	3550
		MOVLP 	0H 			//0178 	0180
		ORG		0179H
		LCALL 	770H 			//0179 	3770
		MOVLP 	0H 			//017A 	0180
		LDWI 	52H 			//017B 	0052
		LCALL 	5C6H 			//017C 	35C6
		MOVLP 	0H 			//017D 	0180
		LCALL 	583H 			//017E 	3583
		MOVLP 	0H 			//017F 	0180
		STR 	1CH 			//0180 	109C
		ORG		0181H
		BSR 	DH, 5H 			//0181 	268D
		BTSS 	DH, 6H 			//0182 	2F0D
		LJUMP 	182H 			//0183 	3982
		MOVLB 	1FH 			//0184 	103F
		LCALL 	7A9H 			//0185 	37A9
		MOVLP 	0H 			//0186 	0180
		LCALL 	786H 			//0187 	3786
		MOVLP 	0H 			//0188 	0180
		ORG		0189H
		BTSC 	3H, 0H 			//0189 	2803
		INCR 	56H, 1H 		//018A 	1AD6
		LCALL 	1F0H 			//018B 	31F0
		MOVLP 	0H 			//018C 	0180
		LCALL 	5B5H 			//018D 	35B5
		MOVLP 	0H 			//018E 	0180
		LCALL 	5A4H 			//018F 	35A4
		MOVLP 	0H 			//0190 	0180
		ORG		0191H
		BTSC 	3H, 2H 			//0191 	2903
		LJUMP 	197H 			//0192 	3997
		LDR 	43H, 0H 			//0193 	1843
		XOWI 	2H 			//0194 	0A02
		BTSS 	3H, 2H 			//0195 	2D03
		LJUMP 	199H 			//0196 	3999
		CLRF 	35H 			//0197 	11B5
		INCR 	35H, 1H 		//0198 	1AB5
		ORG		0199H
		LDR 	4AH, 0H 			//0199 	184A
		LCALL 	655H 			//019A 	3655
		MOVLP 	0H 			//019B 	0180
		MOVLB 	0H 			//019C 	1020
		CLRF 	35H 			//019D 	11B5
		LCALL 	23DH 			//019E 	323D
		MOVLP 	0H 			//019F 	0180
		LDR 	3EH, 0H 			//01A0 	183E
		ORG		01A1H
		XORWR 	4AH, 0H 		//01A1 	164A
		BTSS 	3H, 2H 			//01A2 	2D03
		LJUMP 	1E6H 			//01A3 	39E6
		BTSS 	7DH, 1H 		//01A4 	2CFD
		LJUMP 	1A8H 			//01A5 	39A8
		BCR 	7DH, 1H 			//01A6 	20FD
		LJUMP 	1E6H 			//01A7 	39E6
		CLRF 	3CH 			//01A8 	11BC
		ORG		01A9H
		CLRF 	42H 			//01A9 	11C2
		LDWI 	FH 			//01AA 	000F
		SUBWR 	42H, 0H 		//01AB 	1242
		BTSC 	3H, 0H 			//01AC 	2803
		LJUMP 	1BCH 			//01AD 	39BC
		LDR 	31H, 0H 			//01AE 	1831
		STR 	7CH 			//01AF 	10FC
		LDR 	30H, 0H 			//01B0 	1830
		ORG		01B1H
		STR 	7BH 			//01B1 	10FB
		INCR 	42H, 0H 		//01B2 	1A42
		LJUMP 	1B6H 			//01B3 	39B6
		LSRF 	7CH, 1H 		//01B4 	06FC
		RRR 	7BH, 1H 			//01B5 	1CFB
		DECRSZ 	9H, 1H 		//01B6 	1B89
		LJUMP 	1B4H 			//01B7 	39B4
		BTSC 	7BH, 0H 		//01B8 	287B
		ORG		01B9H
		INCR 	3CH, 1H 		//01B9 	1ABC
		INCR 	42H, 1H 		//01BA 	1AC2
		LJUMP 	1AAH 			//01BB 	39AA
		LDWI 	FFH 			//01BC 	00FF
		BCR 	7DH, 2H 			//01BD 	217D
		BCR 	7DH, 3H 			//01BE 	21FD
		STR 	42H 			//01BF 	10C2
		LDR 	31H, 0H 			//01C0 	1831
		ORG		01C1H
		STR 	7CH 			//01C1 	10FC
		LDR 	30H, 0H 			//01C2 	1830
		STR 	7BH 			//01C3 	10FB
		INCR 	42H, 0H 		//01C4 	1A42
		LJUMP 	1C8H 			//01C5 	39C8
		LSRF 	7CH, 1H 		//01C6 	06FC
		RRR 	7BH, 1H 			//01C7 	1CFB
		DECRSZ 	9H, 1H 		//01C8 	1B89
		ORG		01C9H
		LJUMP 	1C6H 			//01C9 	39C6
		BTSC 	7BH, 0H 		//01CA 	287B
		BSR 	7DH, 3H 			//01CB 	25FD
		DECRSZ 	38H, 0H 		//01CC 	1B38
		LJUMP 	1E2H 			//01CD 	39E2
		DECR 	39H, 0H 		//01CE 	1339
		BTSC 	3H, 2H 			//01CF 	2903
		LJUMP 	1E2H 			//01D0 	39E2
		ORG		01D1H
		LDWI 	5H 			//01D1 	0005
		SUBWR 	3BH, 0H 		//01D2 	123B
		BTSC 	3H, 0H 			//01D3 	2803
		LJUMP 	1E2H 			//01D4 	39E2
		LDR 	2DH, 0H 			//01D5 	182D
		IORWR 	2CH, 0H 		//01D6 	142C
		BTSC 	3H, 2H 			//01D7 	2903
		LJUMP 	1DCH 			//01D8 	39DC
		ORG		01D9H
		CLRF 	40H 			//01D9 	11C0
		CLRF 	3FH 			//01DA 	11BF
		LJUMP 	1DEH 			//01DB 	39DE
		CLRF 	3FH 			//01DC 	11BF
		CLRF 	40H 			//01DD 	11C0
		LDR 	2DH, 0H 			//01DE 	182D
		STR 	2FH 			//01DF 	10AF
		LDR 	2CH, 0H 			//01E0 	182C
		ORG		01E1H
		STR 	2EH 			//01E1 	10AE
		LDWI 	2H 			//01E2 	0002
		STR 	39H 			//01E3 	10B9
		BCR 	7DH, 0H 			//01E4 	207D
		CLRF 	3BH 			//01E5 	11BB
		LDR 	4BH, 0H 			//01E6 	184B
		SUBWR 	3DH, 0H 		//01E7 	123D
		BTSC 	3H, 0H 			//01E8 	2803
		ORG		01E9H
		LJUMP 	1ECH 			//01E9 	39EC
		INCR 	3DH, 1H 		//01EA 	1ABD
		LJUMP 	1EDH 			//01EB 	39ED
		CLRF 	3DH 			//01EC 	11BD
		LCALL 	645H 			//01ED 	3645
		STR 	4AH 			//01EE 	10CA
		RET 					//01EF 	1008
		CLRF 	54H 			//01F0 	11D4
		ORG		01F1H
		CLRF 	57H 			//01F1 	11D7
		CLRF 	58H 			//01F2 	11D8
		CLRF 	59H 			//01F3 	11D9
		CLRF 	50H 			//01F4 	11D0
		BCR 	3H, 0H 			//01F5 	2003
		RLR 	50H, 1H 			//01F6 	1DD0
		RLR 	51H, 1H 			//01F7 	1DD1
		RLR 	52H, 1H 			//01F8 	1DD2
		ORG		01F9H
		BCR 	3H, 0H 			//01F9 	2003
		RLR 	50H, 1H 			//01FA 	1DD0
		RLR 	51H, 1H 			//01FB 	1DD1
		RLR 	52H, 1H 			//01FC 	1DD2
		BCR 	3H, 0H 			//01FD 	2003
		RLR 	50H, 1H 			//01FE 	1DD0
		RLR 	51H, 1H 			//01FF 	1DD1
		RLR 	52H, 1H 			//0200 	1DD2
		ORG		0201H
		LDR 	55H, 0H 			//0201 	1855
		IORWR 	56H, 0H 		//0202 	1456
		BTSC 	3H, 2H 			//0203 	2903
		LJUMP 	230H 			//0204 	3A30
		LDWI 	8H 			//0205 	0008
		STR 	5AH 			//0206 	10DA
		INCR 	5AH, 1H 		//0207 	1ADA
		BTSC 	56H, 7H 		//0208 	2BD6
		ORG		0209H
		LJUMP 	20FH 			//0209 	3A0F
		BCR 	3H, 0H 			//020A 	2003
		RLR 	54H, 1H 			//020B 	1DD4
		RLR 	55H, 1H 			//020C 	1DD5
		RLR 	56H, 1H 			//020D 	1DD6
		LJUMP 	207H 			//020E 	3A07
		BCR 	3H, 0H 			//020F 	2003
		RLR 	57H, 1H 			//0210 	1DD7
		ORG		0211H
		RLR 	58H, 1H 			//0211 	1DD8
		RLR 	59H, 1H 			//0212 	1DD9
		LDR 	56H, 0H 			//0213 	1856
		SUBWR 	52H, 0H 		//0214 	1252
		BTSS 	3H, 2H 			//0215 	2D03
		LJUMP 	21DH 			//0216 	3A1D
		LDR 	55H, 0H 			//0217 	1855
		SUBWR 	51H, 0H 		//0218 	1251
		ORG		0219H
		BTSS 	3H, 2H 			//0219 	2D03
		LJUMP 	21DH 			//021A 	3A1D
		LDR 	54H, 0H 			//021B 	1854
		SUBWR 	50H, 0H 		//021C 	1250
		BTSS 	3H, 0H 			//021D 	2C03
		LJUMP 	22AH 			//021E 	3A2A
		LDR 	54H, 0H 			//021F 	1854
		SUBWR 	50H, 1H 		//0220 	12D0
		ORG		0221H
		LDR 	55H, 0H 			//0221 	1855
		BTSS 	3H, 0H 			//0222 	2C03
		INCRSZ 	55H, 0H 		//0223 	1F55
		SUBWR 	51H, 1H 		//0224 	12D1
		LDR 	56H, 0H 			//0225 	1856
		BTSS 	3H, 0H 			//0226 	2C03
		INCRSZ 	56H, 0H 		//0227 	1F56
		SUBWR 	52H, 1H 		//0228 	12D2
		ORG		0229H
		BSR 	57H, 0H 			//0229 	2457
		BCR 	3H, 0H 			//022A 	2003
		RRR 	56H, 1H 			//022B 	1CD6
		RRR 	55H, 1H 			//022C 	1CD5
		RRR 	54H, 1H 			//022D 	1CD4
		DECRSZ 	5AH, 1H 		//022E 	1BDA
		LJUMP 	20FH 			//022F 	3A0F
		RET 					//0230 	1008
		ORG		0231H
		STR 	70H 			//0231 	10F0
		STR 	12H 			//0232 	1092
		LDR 	70H, 0H 			//0233 	1870
		STR 	13H 			//0234 	1093
		LDR 	70H, 0H 			//0235 	1870
		STR 	15H 			//0236 	1095
		LDWI 	1FH 			//0237 	001F
		STR 	17H 			//0238 	1097
		ORG		0239H
		STR 	19H 			//0239 	1099
		LDWI 	18H 			//023A 	0018
		STR 	1DH 			//023B 	109D
		RET 					//023C 	1008
		LDR 	43H, 1H 			//023D 	18C3
		BTSC 	3H, 2H 			//023E 	2903
		LJUMP 	2BCH 			//023F 	3ABC
		LDR 	4BH, 0H 			//0240 	184B
		ORG		0241H
		ADDWI 	A0H 			//0241 	0EA0
		STR 	6H 			//0242 	1086
		CLRF 	7H 			//0243 	1187
		LDR 	1H, 0H 			//0244 	1801
		XORWR 	4AH, 0H 		//0245 	164A
		BTSS 	3H, 2H 			//0246 	2D03
		LJUMP 	2BCH 			//0247 	3ABC
		MOVLB 	1H 			//0248 	1021
		ORG		0249H
		LDR 	57H, 0H 			//0249 	1857
		SUBWR 	59H, 0H 		//024A 	1259
		BTSS 	3H, 2H 			//024B 	2D03
		LJUMP 	24FH 			//024C 	3A4F
		LDR 	56H, 0H 			//024D 	1856
		SUBWR 	58H, 0H 		//024E 	1258
		BTSS 	3H, 0H 			//024F 	2C03
		LJUMP 	273H 			//0250 	3A73
		ORG		0251H
		CLRF 	58H 			//0251 	11D8
		CLRF 	59H 			//0252 	11D9
		MOVLB 	0H 			//0253 	1020
		CLRF 	3CH 			//0254 	11BC
		LDWI 	FH 			//0255 	000F
		SUBWR 	3CH, 0H 		//0256 	123C
		BTSC 	3H, 0H 			//0257 	2803
		LJUMP 	273H 			//0258 	3A73
		ORG		0259H
		CLRF 	42H 			//0259 	11C2
		LDWI 	2H 			//025A 	0002
		SUBWR 	42H, 0H 		//025B 	1242
		BTSC 	3H, 0H 			//025C 	2803
		LJUMP 	271H 			//025D 	3A71
		LDR 	3CH, 0H 			//025E 	183C
		ADDWR 	9H, 0H 		//025F 	1709
		ADDWR 	9H, 0H 		//0260 	1709
		ORG		0261H
		ADDWR 	9H, 0H 		//0261 	1709
		ADDWI 	78H 			//0262 	0E78
		LCALL 	542H 			//0263 	3542
		MOVLP 	0H 			//0264 	0180
		LCALL 	564H 			//0265 	3564
		MOVLP 	0H 			//0266 	0180
		ADDWI 	0H 			//0267 	0E00
		LCALL 	56CH 			//0268 	356C
		ORG		0269H
		MOVLP 	0H 			//0269 	0180
		BTSC 	3H, 0H 			//026A 	2803
		LJUMP 	26FH 			//026B 	3A6F
		LDR 	3CH, 0H 			//026C 	183C
		LCALL 	518H 			//026D 	3518
		MOVLP 	0H 			//026E 	0180
		INCR 	42H, 1H 		//026F 	1AC2
		LJUMP 	25AH 			//0270 	3A5A
		ORG		0271H
		INCR 	3CH, 1H 		//0271 	1ABC
		LJUMP 	255H 			//0272 	3A55
		MOVLB 	0H 			//0273 	1020
		LDR 	64H, 0H 			//0274 	1864
		SUBWR 	66H, 0H 		//0275 	1266
		BTSS 	3H, 2H 			//0276 	2D03
		LJUMP 	27AH 			//0277 	3A7A
		LDR 	63H, 0H 			//0278 	1863
		ORG		0279H
		SUBWR 	65H, 0H 		//0279 	1265
		BTSS 	3H, 0H 			//027A 	2C03
		LJUMP 	29FH 			//027B 	3A9F
		CLRF 	65H 			//027C 	11E5
		CLRF 	66H 			//027D 	11E6
		CLRF 	3CH 			//027E 	11BC
		LDWI 	FH 			//027F 	000F
		SUBWR 	3CH, 0H 		//0280 	123C
		ORG		0281H
		BTSC 	3H, 0H 			//0281 	2803
		LJUMP 	29FH 			//0282 	3A9F
		CLRF 	42H 			//0283 	11C2
		LDWI 	4H 			//0284 	0004
		SUBWR 	42H, 0H 		//0285 	1242
		BTSC 	3H, 0H 			//0286 	2803
		LJUMP 	29DH 			//0287 	3A9D
		LDWI 	2H 			//0288 	0002
		ORG		0289H
		SUBWR 	42H, 0H 		//0289 	1242
		BTSC 	3H, 0H 			//028A 	2803
		LJUMP 	298H 			//028B 	3A98
		LDR 	3CH, 0H 			//028C 	183C
		LCALL 	59FH 			//028D 	359F
		MOVLP 	0H 			//028E 	0180
		LCALL 	542H 			//028F 	3542
		MOVLP 	0H 			//0290 	0180
		ORG		0291H
		LCALL 	564H 			//0291 	3564
		MOVLP 	0H 			//0292 	0180
		ADDWI 	78H 			//0293 	0E78
		LCALL 	56CH 			//0294 	356C
		MOVLP 	0H 			//0295 	0180
		BTSC 	3H, 0H 			//0296 	2803
		LJUMP 	29BH 			//0297 	3A9B
		LDR 	3CH, 0H 			//0298 	183C
		ORG		0299H
		LCALL 	518H 			//0299 	3518
		MOVLP 	0H 			//029A 	0180
		INCR 	42H, 1H 		//029B 	1AC2
		LJUMP 	284H 			//029C 	3A84
		INCR 	3CH, 1H 		//029D 	1ABC
		LJUMP 	27FH 			//029E 	3A7F
		LDR 	43H, 0H 			//029F 	1843
		XOWI 	2H 			//02A0 	0A02
		ORG		02A1H
		BTSS 	3H, 2H 			//02A1 	2D03
		LJUMP 	2BCH 			//02A2 	3ABC
		LDR 	3AH, 1H 			//02A3 	18BA
		BTSS 	3H, 2H 			//02A4 	2D03
		LJUMP 	2A9H 			//02A5 	3AA9
		CLRF 	3AH 			//02A6 	11BA
		INCR 	3AH, 1H 		//02A7 	1ABA
		LJUMP 	2BCH 			//02A8 	3ABC
		ORG		02A9H
		CLRF 	43H 			//02A9 	11C3
		INCR 	43H, 1H 		//02AA 	1AC3
		CLRF 	3CH 			//02AB 	11BC
		LDWI 	FH 			//02AC 	000F
		SUBWR 	3CH, 0H 		//02AD 	123C
		BTSC 	3H, 0H 			//02AE 	2803
		LJUMP 	2BCH 			//02AF 	3ABC
		CLRF 	42H 			//02B0 	11C2
		ORG		02B1H
		LDWI 	4H 			//02B1 	0004
		SUBWR 	42H, 0H 		//02B2 	1242
		BTSC 	3H, 0H 			//02B3 	2803
		LJUMP 	2BAH 			//02B4 	3ABA
		LDR 	3CH, 0H 			//02B5 	183C
		LCALL 	518H 			//02B6 	3518
		MOVLP 	0H 			//02B7 	0180
		INCR 	42H, 1H 		//02B8 	1AC2
		ORG		02B9H
		LJUMP 	2B1H 			//02B9 	3AB1
		INCR 	3CH, 1H 		//02BA 	1ABC
		LJUMP 	2ACH 			//02BB 	3AAC
		CLRF 	36H 			//02BC 	11B6
		CLRF 	37H 			//02BD 	11B7
		CLRF 	42H 			//02BE 	11C2
		LDWI 	2H 			//02BF 	0002
		SUBWR 	42H, 0H 		//02C0 	1242
		ORG		02C1H
		BTSC 	3H, 0H 			//02C1 	2803
		LJUMP 	35CH 			//02C2 	3B5C
		LSLF 	42H, 0H 		//02C3 	0542
		ADDWI 	20H 			//02C4 	0E20
		STR 	6H 			//02C5 	1086
		CLRF 	7H 			//02C6 	1187
		MOVIW 	0H[1] 			//02C7 	0F40
		STR 	73H 			//02C8 	10F3
		ORG		02C9H
		MOVIW 	1H[1] 			//02C9 	0F41
		STR 	74H 			//02CA 	10F4
		LCALL 	608H 			//02CB 	3608
		MOVLP 	0H 			//02CC 	0180
		STR 	75H 			//02CD 	10F5
		LDWI 	23H 			//02CE 	0023
		BTSC 	3H, 0H 			//02CF 	2803
		LDWI 	24H 			//02D0 	0024
		ORG		02D1H
		STR 	76H 			//02D1 	10F6
		LSLF 	42H, 0H 		//02D2 	0542
		ADDWR 	75H, 0H 		//02D3 	1775
		STR 	6H 			//02D4 	1086
		LDR 	76H, 0H 			//02D5 	1876
		BTSC 	3H, 0H 			//02D6 	2803
		INCR 	9H, 1H 			//02D7 	1A89
		STR 	7H 			//02D8 	1087
		ORG		02D9H
		MOVIW 	0H[1] 			//02D9 	0F40
		STR 	77H 			//02DA 	10F7
		MOVIW 	1H[1] 			//02DB 	0F41
		STR 	78H 			//02DC 	10F8
		LDR 	74H, 0H 			//02DD 	1874
		SUBWR 	78H, 0H 		//02DE 	1278
		BTSS 	3H, 2H 			//02DF 	2D03
		LJUMP 	2E3H 			//02E0 	3AE3
		ORG		02E1H
		LDR 	73H, 0H 			//02E1 	1873
		SUBWR 	77H, 0H 		//02E2 	1277
		BTSS 	3H, 0H 			//02E3 	2C03
		LJUMP 	329H 			//02E4 	3B29
		LSLF 	42H, 0H 		//02E5 	0542
		ADDWI 	20H 			//02E6 	0E20
		STR 	6H 			//02E7 	1086
		CLRF 	7H 			//02E8 	1187
		ORG		02E9H
		LDR 	4AH, 0H 			//02E9 	184A
		LCALL 	59FH 			//02EA 	359F
		MOVLP 	0H 			//02EB 	0180
		STR 	73H 			//02EC 	10F3
		LDWI 	23H 			//02ED 	0023
		BTSC 	3H, 0H 			//02EE 	2803
		LDWI 	24H 			//02EF 	0024
		STR 	74H 			//02F0 	10F4
		ORG		02F1H
		LSLF 	42H, 0H 		//02F1 	0542
		ADDWR 	73H, 0H 		//02F2 	1773
		STR 	4H 			//02F3 	1084
		LDR 	74H, 0H 			//02F4 	1874
		BTSC 	3H, 0H 			//02F5 	2803
		INCR 	9H, 1H 			//02F6 	1A89
		STR 	5H 			//02F7 	1085
		MOVIW 	0H[1] 			//02F8 	0F40
		ORG		02F9H
		SUBWR 	0H, 0H 		//02F9 	1200
		STR 	75H 			//02FA 	10F5
		ADDFSR 	0H, 1H 		//02FB 	0101
		MOVIW 	1H[1] 			//02FC 	0F41
		SUBWFB 	0H, 0H 		//02FD 	0B00
		STR 	76H 			//02FE 	10F6
		LDWI 	0H 			//02FF 	0000
		SUBWR 	76H, 0H 		//0300 	1276
		ORG		0301H
		LDWI 	FFH 			//0301 	00FF
		BTSC 	3H, 2H 			//0302 	2903
		SUBWR 	75H, 0H 		//0303 	1275
		LDR 	42H, 0H 			//0304 	1842
		BTSC 	3H, 0H 			//0305 	2803
		LJUMP 	323H 			//0306 	3B23
		ADDWI 	28H 			//0307 	0E28
		STR 	6H 			//0308 	1086
		ORG		0309H
		CLRF 	7H 			//0309 	1187
		LSLF 	42H, 0H 		//030A 	0542
		ADDWI 	20H 			//030B 	0E20
		STR 	4H 			//030C 	1084
		CLRF 	5H 			//030D 	1185
		LDR 	0H, 0H 			//030E 	1800
		STR 	73H 			//030F 	10F3
		LCALL 	608H 			//0310 	3608
		ORG		0311H
		MOVLP 	0H 			//0311 	0180
		STR 	74H 			//0312 	10F4
		LDWI 	23H 			//0313 	0023
		BTSC 	3H, 0H 			//0314 	2803
		LDWI 	24H 			//0315 	0024
		STR 	75H 			//0316 	10F5
		LSLF 	42H, 0H 		//0317 	0542
		ADDWR 	74H, 0H 		//0318 	1774
		ORG		0319H
		STR 	4H 			//0319 	1084
		LDR 	75H, 0H 			//031A 	1875
		BTSC 	3H, 0H 			//031B 	2803
		INCR 	9H, 1H 			//031C 	1A89
		STR 	5H 			//031D 	1085
		LDR 	0H, 0H 			//031E 	1800
		STR 	76H 			//031F 	10F6
		LDR 	73H, 0H 			//0320 	1873
		ORG		0321H
		SUBWR 	76H, 0H 		//0321 	1276
		LJUMP 	327H 			//0322 	3B27
		ADDWI 	28H 			//0323 	0E28
		STR 	6H 			//0324 	1086
		LDWI 	FFH 			//0325 	00FF
		CLRF 	7H 			//0326 	1187
		STR 	1H 			//0327 	1081
		LJUMP 	32EH 			//0328 	3B2E
		ORG		0329H
		LDR 	42H, 0H 			//0329 	1842
		ADDWI 	28H 			//032A 	0E28
		STR 	6H 			//032B 	1086
		CLRF 	7H 			//032C 	1187
		CLRF 	1H 			//032D 	1181
		LCALL 	629H 			//032E 	3629
		MOVLP 	0H 			//032F 	0180
		LCALL 	4B9H 			//0330 	34B9
		ORG		0331H
		MOVLP 	0H 			//0331 	0180
		ADDWI 	5BH 			//0332 	0E5B
		STR 	73H 			//0333 	10F3
		LDWI 	90H 			//0334 	0090
		LCALL 	5F2H 			//0335 	35F2
		MOVLP 	0H 			//0336 	0180
		STR 	75H 			//0337 	10F5
		LDR 	1H, 0H 			//0338 	1801
		ORG		0339H
		SUBWR 	75H, 0H 		//0339 	1275
		BTSS 	3H, 0H 			//033A 	2C03
		LJUMP 	345H 			//033B 	3B45
		LDWI 	1H 			//033C 	0001
		STR 	73H 			//033D 	10F3
		INCR 	42H, 0H 		//033E 	1A42
		LJUMP 	341H 			//033F 	3B41
		LSLF 	73H, 1H 		//0340 	05F3
		ORG		0341H
		DECRSZ 	9H, 1H 		//0341 	1B89
		LJUMP 	340H 			//0342 	3B40
		LDR 	73H, 0H 			//0343 	1873
		IORWR 	37H, 1H 		//0344 	14B7
		LCALL 	629H 			//0345 	3629
		MOVLP 	0H 			//0346 	0180
		LCALL 	4B9H 			//0347 	34B9
		MOVLP 	0H 			//0348 	0180
		ORG		0349H
		ADDWI 	1H 			//0349 	0E01
		STR 	73H 			//034A 	10F3
		LDWI 	90H 			//034B 	0090
		LCALL 	5F2H 			//034C 	35F2
		MOVLP 	0H 			//034D 	0180
		SUBWR 	1H, 0H 		//034E 	1201
		BTSS 	3H, 0H 			//034F 	2C03
		LJUMP 	35AH 			//0350 	3B5A
		ORG		0351H
		LDWI 	1H 			//0351 	0001
		STR 	73H 			//0352 	10F3
		INCR 	42H, 0H 		//0353 	1A42
		LJUMP 	356H 			//0354 	3B56
		LSLF 	73H, 1H 		//0355 	05F3
		DECRSZ 	9H, 1H 		//0356 	1B89
		LJUMP 	355H 			//0357 	3B55
		LDR 	73H, 0H 			//0358 	1873
		ORG		0359H
		IORWR 	36H, 1H 		//0359 	14B6
		INCR 	42H, 1H 		//035A 	1AC2
		LJUMP 	2BFH 			//035B 	3ABF
		LDR 	2DH, 0H 			//035C 	182D
		LCALL 	64BH 			//035D 	364B
		MOVLP 	0H 			//035E 	0180
		LJUMP 	362H 			//035F 	3B62
		LSRF 	74H, 1H 		//0360 	06F4
		ORG		0361H
		RRR 	73H, 1H 			//0361 	1CF3
		DECRSZ 	9H, 1H 		//0362 	1B89
		LJUMP 	360H 			//0363 	3B60
		BTSS 	73H, 0H 		//0364 	2C73
		LJUMP 	3CAH 			//0365 	3BCA
		LDWI 	3H 			//0366 	0003
		INCR 	3BH, 1H 		//0367 	1ABB
		ANDWR 	37H, 0H 		//0368 	1537
		ORG		0369H
		STR 	73H 			//0369 	10F3
		XOWI 	3H 			//036A 	0A03
		BTSS 	3H, 2H 			//036B 	2D03
		LJUMP 	37FH 			//036C 	3B7F
		LDWI 	1H 			//036D 	0001
		STR 	73H 			//036E 	10F3
		CLRF 	74H 			//036F 	11F4
		INCR 	4AH, 0H 		//0370 	1A4A
		ORG		0371H
		LJUMP 	374H 			//0371 	3B74
		LSLF 	73H, 1H 		//0372 	05F3
		RLR 	74H, 1H 			//0373 	1DF4
		DECRSZ 	9H, 1H 		//0374 	1B89
		LJUMP 	372H 			//0375 	3B72
		COMR 	73H, 1H 		//0376 	19F3
		LCALL 	63FH 			//0377 	363F
		MOVLP 	0H 			//0378 	0180
		ORG		0379H
		LDR 	2DH, 0H 			//0379 	182D
		STR 	31H 			//037A 	10B1
		LDR 	2CH, 0H 			//037B 	182C
		STR 	30H 			//037C 	10B0
		DECR 	3BH, 1H 		//037D 	13BB
		LJUMP 	3A3H 			//037E 	3BA3
		LDR 	37H, 0H 			//037F 	1837
		ANDWI 	3H 			//0380 	0903
		ORG		0381H
		BTSC 	3H, 2H 			//0381 	2903
		LJUMP 	3A3H 			//0382 	3BA3
		CLRF 	35H 			//0383 	11B5
		INCR 	35H, 1H 		//0384 	1AB5
		LDR 	4AH, 0H 			//0385 	184A
		LCALL 	655H 			//0386 	3655
		MOVLP 	0H 			//0387 	0180
		MOVLB 	0H 			//0388 	1020
		ORG		0389H
		LDR 	4AH, 0H 			//0389 	184A
		LCALL 	4C5H 			//038A 	34C5
		MOVLP 	0H 			//038B 	0180
		LCALL 	650H 			//038C 	3650
		MOVLP 	0H 			//038D 	0180
		LCALL 	4B9H 			//038E 	34B9
		MOVLP 	0H 			//038F 	0180
		ADDWI 	3H 			//0390 	0E03
		ORG		0391H
		LCALL 	618H 			//0391 	3618
		MOVLP 	0H 			//0392 	0180
		LDR 	2BH, 0H 			//0393 	182B
		SUBWR 	73H, 0H 		//0394 	1273
		BTSS 	3H, 0H 			//0395 	2C03
		LJUMP 	3A3H 			//0396 	3BA3
		LDWI 	6H 			//0397 	0006
		STR 	70H 			//0398 	10F0
		ORG		0399H
		LDR 	4AH, 0H 			//0399 	184A
		LCALL 	4B9H 			//039A 	34B9
		MOVLP 	0H 			//039B 	0180
		ADDWI 	2H 			//039C 	0E02
		LCALL 	618H 			//039D 	3618
		MOVLP 	0H 			//039E 	0180
		LDR 	2AH, 0H 			//039F 	182A
		SUBWR 	73H, 0H 		//03A0 	1273
		ORG		03A1H
		BTSC 	3H, 0H 			//03A1 	2803
		LJUMP 	36DH 			//03A2 	3B6D
		LDR 	2FH, 0H 			//03A3 	182F
		STR 	74H 			//03A4 	10F4
		LDR 	2EH, 0H 			//03A5 	182E
		STR 	73H 			//03A6 	10F3
		INCR 	4AH, 0H 		//03A7 	1A4A
		LJUMP 	3ABH 			//03A8 	3BAB
		ORG		03A9H
		LSRF 	74H, 1H 		//03A9 	06F4
		RRR 	73H, 1H 			//03AA 	1CF3
		DECRSZ 	9H, 1H 		//03AB 	1B89
		LJUMP 	3A9H 			//03AC 	3BA9
		BTSS 	73H, 0H 		//03AD 	2C73
		LJUMP 	432H 			//03AE 	3C32
		LDR 	2DH, 0H 			//03AF 	182D
		LCALL 	64BH 			//03B0 	364B
		ORG		03B1H
		MOVLP 	0H 			//03B1 	0180
		LJUMP 	3B5H 			//03B2 	3BB5
		LSRF 	74H, 1H 		//03B3 	06F4
		RRR 	73H, 1H 			//03B4 	1CF3
		DECRSZ 	9H, 1H 		//03B5 	1B89
		LJUMP 	3B3H 			//03B6 	3BB3
		BTSS 	73H, 0H 		//03B7 	2C73
		LJUMP 	3BBH 			//03B8 	3BBB
		ORG		03B9H
		CLRF 	38H 			//03B9 	11B8
		LJUMP 	432H 			//03BA 	3C32
		LDR 	38H, 1H 			//03BB 	18B8
		BTSS 	3H, 2H 			//03BC 	2D03
		LJUMP 	3C1H 			//03BD 	3BC1
		CLRF 	39H 			//03BE 	11B9
		INCR 	39H, 1H 		//03BF 	1AB9
		LJUMP 	3C3H 			//03C0 	3BC3
		ORG		03C1H
		LDWI 	2H 			//03C1 	0002
		STR 	39H 			//03C2 	10B9
		CLRF 	38H 			//03C3 	11B8
		INCR 	38H, 1H 		//03C4 	1AB8
		MOVLB 	1H 			//03C5 	1021
		CLRF 	41H 			//03C6 	11C1
		CLRF 	42H 			//03C7 	11C2
		BCR 	7DH, 0H 			//03C8 	207D
		ORG		03C9H
		LJUMP 	432H 			//03C9 	3C32
		LDWI 	3H 			//03CA 	0003
		ANDWR 	36H, 0H 		//03CB 	1536
		STR 	73H 			//03CC 	10F3
		XOWI 	3H 			//03CD 	0A03
		BTSS 	3H, 2H 			//03CE 	2D03
		LJUMP 	3E5H 			//03CF 	3BE5
		LDWI 	1H 			//03D0 	0001
		ORG		03D1H
		STR 	73H 			//03D1 	10F3
		CLRF 	74H 			//03D2 	11F4
		MOVLB 	0H 			//03D3 	1020
		INCR 	4AH, 0H 		//03D4 	1A4A
		LJUMP 	3D8H 			//03D5 	3BD8
		LSLF 	73H, 1H 		//03D6 	05F3
		RLR 	74H, 1H 			//03D7 	1DF4
		DECRSZ 	9H, 1H 		//03D8 	1B89
		ORG		03D9H
		LJUMP 	3D6H 			//03D9 	3BD6
		LDR 	73H, 0H 			//03DA 	1873
		IORWR 	2CH, 1H 		//03DB 	14AC
		LDR 	74H, 0H 			//03DC 	1874
		IORWR 	2DH, 1H 		//03DD 	14AD
		LDR 	2DH, 0H 			//03DE 	182D
		STR 	31H 			//03DF 	10B1
		LDR 	2CH, 0H 			//03E0 	182C
		ORG		03E1H
		STR 	30H 			//03E1 	10B0
		INCR 	3BH, 1H 		//03E2 	1ABB
		BSR 	67H, 0H 			//03E3 	2467
		LJUMP 	432H 			//03E4 	3C32
		LDR 	36H, 0H 			//03E5 	1836
		ANDWI 	3H 			//03E6 	0903
		BTSC 	3H, 2H 			//03E7 	2903
		LJUMP 	432H 			//03E8 	3C32
		ORG		03E9H
		CLRF 	35H 			//03E9 	11B5
		INCR 	35H, 1H 		//03EA 	1AB5
		LDR 	4AH, 0H 			//03EB 	184A
		LCALL 	655H 			//03EC 	3655
		MOVLP 	0H 			//03ED 	0180
		MOVLB 	0H 			//03EE 	1020
		LDR 	4AH, 0H 			//03EF 	184A
		LCALL 	4C5H 			//03F0 	34C5
		ORG		03F1H
		MOVLP 	0H 			//03F1 	0180
		LCALL 	650H 			//03F2 	3650
		MOVLP 	0H 			//03F3 	0180
		LCALL 	4B9H 			//03F4 	34B9
		MOVLP 	0H 			//03F5 	0180
		ADDWI 	3H 			//03F6 	0E03
		LCALL 	5DFH 			//03F7 	35DF
		MOVLP 	0H 			//03F8 	0180
		ORG		03F9H
		SUBWR 	2BH, 0H 		//03F9 	122B
		BTSS 	3H, 0H 			//03FA 	2C03
		LJUMP 	432H 			//03FB 	3C32
		LDWI 	6H 			//03FC 	0006
		STR 	70H 			//03FD 	10F0
		LDR 	4AH, 0H 			//03FE 	184A
		LCALL 	4B9H 			//03FF 	34B9
		MOVLP 	0H 			//0400 	0180
		ORG		0401H
		ADDWI 	2H 			//0401 	0E02
		LCALL 	5DFH 			//0402 	35DF
		MOVLP 	0H 			//0403 	0180
		SUBWR 	2AH, 0H 		//0404 	122A
		BTSS 	3H, 0H 			//0405 	2C03
		LJUMP 	432H 			//0406 	3C32
		LDWI 	6H 			//0407 	0006
		STR 	70H 			//0408 	10F0
		ORG		0409H
		LDR 	4AH, 0H 			//0409 	184A
		LCALL 	4B9H 			//040A 	34B9
		MOVLP 	0H 			//040B 	0180
		LCALL 	5DFH 			//040C 	35DF
		MOVLP 	0H 			//040D 	0180
		STR 	73H 			//040E 	10F3
		CLRF 	74H 			//040F 	11F4
		LSLF 	73H, 1H 		//0410 	05F3
		ORG		0411H
		RLR 	74H, 1H 			//0411 	1DF4
		LDR 	74H, 0H 			//0412 	1874
		XOWI 	80H 			//0413 	0A80
		SUBWI 	80H 			//0414 	0C80
		BTSS 	3H, 2H 			//0415 	2D03
		LJUMP 	419H 			//0416 	3C19
		LDR 	73H, 0H 			//0417 	1873
		SUBWR 	28H, 0H 		//0418 	1228
		ORG		0419H
		BTSC 	3H, 0H 			//0419 	2803
		LJUMP 	3D0H 			//041A 	3BD0
		LDWI 	6H 			//041B 	0006
		STR 	70H 			//041C 	10F0
		MOVLB 	0H 			//041D 	1020
		LDR 	4AH, 0H 			//041E 	184A
		LCALL 	4B9H 			//041F 	34B9
		MOVLP 	0H 			//0420 	0180
		ORG		0421H
		STR 	73H 			//0421 	10F3
		INCR 	73H, 0H 		//0422 	1A73
		LCALL 	5DFH 			//0423 	35DF
		MOVLP 	0H 			//0424 	0180
		STR 	74H 			//0425 	10F4
		CLRF 	75H 			//0426 	11F5
		LSLF 	74H, 1H 		//0427 	05F4
		RLR 	75H, 1H 			//0428 	1DF5
		ORG		0429H
		LDR 	75H, 0H 			//0429 	1875
		XOWI 	80H 			//042A 	0A80
		SUBWI 	80H 			//042B 	0C80
		BTSS 	3H, 2H 			//042C 	2D03
		LJUMP 	430H 			//042D 	3C30
		LDR 	74H, 0H 			//042E 	1874
		SUBWR 	29H, 0H 		//042F 	1229
		BTSC 	3H, 0H 			//0430 	2803
		ORG		0431H
		LJUMP 	3D0H 			//0431 	3BD0
		MOVLB 	0H 			//0432 	1020
		BTSS 	67H, 0H 		//0433 	2C67
		LJUMP 	4A5H 			//0434 	3CA5
		BCR 	67H, 0H 			//0435 	2067
		BTSC 	7DH, 0H 		//0436 	287D
		LJUMP 	453H 			//0437 	3C53
		BSR 	7DH, 0H 			//0438 	247D
		ORG		0439H
		BSR 	7DH, 1H 			//0439 	24FD
		LCALL 	645H 			//043A 	3645
		MOVLP 	0H 			//043B 	0180
		STR 	3EH 			//043C 	10BE
		CLRF 	42H 			//043D 	11C2
		LDWI 	2H 			//043E 	0002
		SUBWR 	42H, 0H 		//043F 	1242
		BTSC 	3H, 0H 			//0440 	2803
		ORG		0441H
		LJUMP 	4A5H 			//0441 	3CA5
		LDR 	42H, 0H 			//0442 	1842
		LCALL 	593H 			//0443 	3593
		MOVLP 	0H 			//0444 	0180
		LCALL 	542H 			//0445 	3542
		MOVLP 	0H 			//0446 	0180
		STR 	55H 			//0447 	10D5
		MOVIW 	1H[1] 			//0448 	0F41
		ORG		0449H
		STR 	56H 			//0449 	10D6
		LCALL 	1F0H 			//044A 	31F0
		MOVLP 	0H 			//044B 	0180
		MOVLB 	0H 			//044C 	1020
		LSLF 	42H, 0H 		//044D 	0542
		ADDWI 	B9H 			//044E 	0EB9
		LCALL 	638H 			//044F 	3638
		MOVLP 	0H 			//0450 	0180
		ORG		0451H
		INCR 	42H, 1H 		//0451 	1AC2
		LJUMP 	43EH 			//0452 	3C3E
		CLRF 	41H 			//0453 	11C1
		CLRF 	42H 			//0454 	11C2
		LDWI 	2H 			//0455 	0002
		SUBWR 	42H, 0H 		//0456 	1242
		BTSC 	3H, 0H 			//0457 	2803
		LJUMP 	47BH 			//0458 	3C7B
		ORG		0459H
		LDR 	42H, 0H 			//0459 	1842
		LCALL 	593H 			//045A 	3593
		MOVLP 	0H 			//045B 	0180
		LCALL 	542H 			//045C 	3542
		MOVLP 	0H 			//045D 	0180
		STR 	55H 			//045E 	10D5
		MOVIW 	1H[1] 			//045F 	0F41
		STR 	56H 			//0460 	10D6
		ORG		0461H
		LCALL 	1F0H 			//0461 	31F0
		MOVLP 	0H 			//0462 	0180
		MOVLB 	0H 			//0463 	1020
		LSLF 	42H, 0H 		//0464 	0542
		ADDWI 	BDH 			//0465 	0EBD
		LCALL 	638H 			//0466 	3638
		MOVLP 	0H 			//0467 	0180
		LSLF 	42H, 0H 		//0468 	0542
		ORG		0469H
		ADDWI 	BDH 			//0469 	0EBD
		STR 	6H 			//046A 	1086
		LCALL 	621H 			//046B 	3621
		MOVLP 	0H 			//046C 	0180
		MOVIW 	0H[1] 			//046D 	0F40
		STR 	75H 			//046E 	10F5
		MOVIW 	1H[1] 			//046F 	0F41
		STR 	76H 			//0470 	10F6
		ORG		0471H
		LDR 	74H, 0H 			//0471 	1874
		SUBWR 	76H, 0H 		//0472 	1276
		BTSS 	3H, 2H 			//0473 	2D03
		LJUMP 	477H 			//0474 	3C77
		LDR 	73H, 0H 			//0475 	1873
		SUBWR 	75H, 0H 		//0476 	1275
		BTSS 	3H, 0H 			//0477 	2C03
		INCR 	41H, 1H 		//0478 	1AC1
		ORG		0479H
		INCR 	42H, 1H 		//0479 	1AC2
		LJUMP 	455H 			//047A 	3C55
		LDR 	41H, 0H 			//047B 	1841
		XOWI 	2H 			//047C 	0A02
		BTSS 	3H, 2H 			//047D 	2D03
		LJUMP 	499H 			//047E 	3C99
		CLRF 	2CH 			//047F 	11AC
		INCR 	2CH, 1H 		//0480 	1AAC
		ORG		0481H
		CLRF 	2DH 			//0481 	11AD
		INCR 	4AH, 0H 		//0482 	1A4A
		LJUMP 	486H 			//0483 	3C86
		LSLF 	2CH, 1H 		//0484 	05AC
		RLR 	2DH, 1H 			//0485 	1DAD
		DECRSZ 	9H, 1H 		//0486 	1B89
		LJUMP 	484H 			//0487 	3C84
		CLRF 	42H 			//0488 	11C2
		ORG		0489H
		LDWI 	2H 			//0489 	0002
		SUBWR 	42H, 0H 		//048A 	1242
		BTSC 	3H, 0H 			//048B 	2803
		LJUMP 	4A5H 			//048C 	3CA5
		LSLF 	42H, 0H 		//048D 	0542
		ADDWI 	BDH 			//048E 	0EBD
		STR 	6H 			//048F 	1086
		CLRF 	7H 			//0490 	1187
		ORG		0491H
		LCALL 	621H 			//0491 	3621
		MOVLP 	0H 			//0492 	0180
		LDR 	73H, 0H 			//0493 	1873
		MOVWI 	40H[1] 		//0494 	0FC0
		LDR 	74H, 0H 			//0495 	1874
		MOVWI 	41H[1] 		//0496 	0FC1
		INCR 	42H, 1H 		//0497 	1AC2
		LJUMP 	489H 			//0498 	3C89
		ORG		0499H
		LDWI 	1H 			//0499 	0001
		STR 	73H 			//049A 	10F3
		CLRF 	74H 			//049B 	11F4
		INCR 	4AH, 0H 		//049C 	1A4A
		LJUMP 	4A0H 			//049D 	3CA0
		LSLF 	73H, 1H 		//049E 	05F3
		RLR 	74H, 1H 			//049F 	1DF4
		DECRSZ 	9H, 1H 		//04A0 	1B89
		ORG		04A1H
		LJUMP 	49EH 			//04A1 	3C9E
		COMR 	73H, 1H 		//04A2 	19F3
		LCALL 	63FH 			//04A3 	363F
		MOVLP 	0H 			//04A4 	0180
		LDR 	2DH, 0H 			//04A5 	182D
		IORWR 	2CH, 0H 		//04A6 	142C
		BTSS 	3H, 2H 			//04A7 	2D03
		RET 					//04A8 	1008
		ORG		04A9H
		CLRF 	38H 			//04A9 	11B8
		INCR 	38H, 1H 		//04AA 	1AB8
		CLRF 	42H 			//04AB 	11C2
		LDWI 	2H 			//04AC 	0002
		SUBWR 	42H, 0H 		//04AD 	1242
		BTSC 	3H, 0H 			//04AE 	2803
		RET 					//04AF 	1008
		LSLF 	42H, 0H 		//04B0 	0542
		ORG		04B1H
		ADDWI 	B9H 			//04B1 	0EB9
		STR 	6H 			//04B2 	1086
		CLRF 	7H 			//04B3 	1187
		CLRF 	1H 			//04B4 	1181
		ADDFSR 	1H, 1H 		//04B5 	0141
		CLRF 	1H 			//04B6 	1181
		INCR 	42H, 1H 		//04B7 	1AC2
		LJUMP 	4ACH 			//04B8 	3CAC
		ORG		04B9H
		STR 	72H 			//04B9 	10F2
		CLRF 	71H 			//04BA 	11F1
		LDR 	70H, 0H 			//04BB 	1870
		BTSC 	72H, 0H 		//04BC 	2872
		ADDWR 	71H, 1H 		//04BD 	17F1
		LSLF 	70H, 1H 		//04BE 	05F0
		LSRF 	72H, 1H 		//04BF 	06F2
		LDR 	72H, 1H 			//04C0 	18F2
		ORG		04C1H
		BTSS 	3H, 2H 			//04C1 	2D03
		LJUMP 	4BBH 			//04C2 	3CBB
		LDR 	71H, 0H 			//04C3 	1871
		RET 					//04C4 	1008
		STR 	72H 			//04C5 	10F2
		ADDWR 	9H, 0H 		//04C6 	1709
		LCALL 	60EH 			//04C7 	360E
		MOVLP 	0H 			//04C8 	0180
		ORG		04C9H
		LCALL 	5C0H 			//04C9 	35C0
		MOVLP 	0H 			//04CA 	0180
		MOVIW 	0H[1] 			//04CB 	0F40
		STR 	70H 			//04CC 	10F0
		MOVIW 	1H[1] 			//04CD 	0F41
		STR 	71H 			//04CE 	10F1
		LDR 	27H, 0H 			//04CF 	1827
		SUBWR 	71H, 0H 		//04D0 	1271
		ORG		04D1H
		BTSS 	3H, 2H 			//04D1 	2D03
		LJUMP 	4D5H 			//04D2 	3CD5
		LDR 	26H, 0H 			//04D3 	1826
		SUBWR 	70H, 0H 		//04D4 	1270
		BTSS 	3H, 0H 			//04D5 	2C03
		LJUMP 	4EDH 			//04D6 	3CED
		LDWI 	26H 			//04D7 	0026
		LCALL 	631H 			//04D8 	3631
		ORG		04D9H
		MOVLP 	0H 			//04D9 	0180
		ADDWI 	6H 			//04DA 	0E06
		LCALL 	5CFH 			//04DB 	35CF
		MOVLP 	0H 			//04DC 	0180
		BTSC 	3H, 2H 			//04DD 	2903
		SUBWR 	70H, 0H 		//04DE 	1270
		BTSC 	3H, 0H 			//04DF 	2803
		LJUMP 	4EAH 			//04E0 	3CEA
		ORG		04E1H
		LDR 	72H, 0H 			//04E1 	1872
		ADDWR 	9H, 0H 		//04E2 	1709
		LCALL 	60EH 			//04E3 	360E
		MOVLP 	0H 			//04E4 	0180
		LCALL 	5C0H 			//04E5 	35C0
		MOVLP 	0H 			//04E6 	0180
		LDR 	26H, 0H 			//04E7 	1826
		SUBWR 	1H, 0H 		//04E8 	1201
		ORG		04E9H
		LJUMP 	4EBH 			//04E9 	3CEB
		LDWI 	FFH 			//04EA 	00FF
		STR 	2BH 			//04EB 	10AB
		LJUMP 	4EEH 			//04EC 	3CEE
		CLRF 	2BH 			//04ED 	11AB
		LDR 	72H, 0H 			//04EE 	1872
		ADDWR 	9H, 0H 		//04EF 	1709
		LCALL 	613H 			//04F0 	3613
		ORG		04F1H
		MOVLP 	0H 			//04F1 	0180
		LCALL 	5C0H 			//04F2 	35C0
		MOVLP 	0H 			//04F3 	0180
		MOVIW 	0H[1] 			//04F4 	0F40
		STR 	70H 			//04F5 	10F0
		MOVIW 	1H[1] 			//04F6 	0F41
		STR 	71H 			//04F7 	10F1
		LDR 	25H, 0H 			//04F8 	1825
		ORG		04F9H
		SUBWR 	71H, 0H 		//04F9 	1271
		BTSS 	3H, 2H 			//04FA 	2D03
		LJUMP 	4FEH 			//04FB 	3CFE
		LDR 	24H, 0H 			//04FC 	1824
		SUBWR 	70H, 0H 		//04FD 	1270
		BTSS 	3H, 0H 			//04FE 	2C03
		LJUMP 	516H 			//04FF 	3D16
		LDWI 	24H 			//0500 	0024
		ORG		0501H
		LCALL 	631H 			//0501 	3631
		MOVLP 	0H 			//0502 	0180
		ADDWI 	4H 			//0503 	0E04
		LCALL 	5CFH 			//0504 	35CF
		MOVLP 	0H 			//0505 	0180
		BTSC 	3H, 2H 			//0506 	2903
		SUBWR 	70H, 0H 		//0507 	1270
		BTSC 	3H, 0H 			//0508 	2803
		ORG		0509H
		LJUMP 	513H 			//0509 	3D13
		LDR 	72H, 0H 			//050A 	1872
		ADDWR 	9H, 0H 		//050B 	1709
		LCALL 	613H 			//050C 	3613
		MOVLP 	0H 			//050D 	0180
		LCALL 	5C0H 			//050E 	35C0
		LDR 	24H, 0H 			//050F 	1824
		SUBWR 	1H, 0H 		//0510 	1201
		ORG		0511H
		STR 	2AH 			//0511 	10AA
		RET 					//0512 	1008
		LDWI 	FFH 			//0513 	00FF
		STR 	2AH 			//0514 	10AA
		RET 					//0515 	1008
		CLRF 	2AH 			//0516 	11AA
		RET 					//0517 	1008
		ADDWR 	9H, 0H 		//0518 	1709
		ORG		0519H
		ADDWR 	9H, 0H 		//0519 	1709
		ADDWR 	9H, 0H 		//051A 	1709
		ADDWI 	78H 			//051B 	0E78
		STR 	73H 			//051C 	10F3
		LDWI 	23H 			//051D 	0023
		BTSC 	3H, 0H 			//051E 	2803
		LDWI 	24H 			//051F 	0024
		STR 	74H 			//0520 	10F4
		ORG		0521H
		LSLF 	42H, 0H 		//0521 	0542
		ADDWR 	73H, 0H 		//0522 	1773
		STR 	6H 			//0523 	1086
		LDR 	74H, 0H 			//0524 	1874
		BTSC 	3H, 0H 			//0525 	2803
		INCR 	9H, 1H 			//0526 	1A89
		STR 	7H 			//0527 	1087
		MOVIW 	0H[1] 			//0528 	0F40
		ORG		0529H
		STR 	75H 			//0529 	10F5
		MOVIW 	1H[1] 			//052A 	0F41
		STR 	76H 			//052B 	10F6
		LDR 	3CH, 0H 			//052C 	183C
		ADDWR 	9H, 0H 		//052D 	1709
		ADDWR 	9H, 0H 		//052E 	1709
		ADDWR 	9H, 0H 		//052F 	1709
		ADDWI 	0H 			//0530 	0E00
		ORG		0531H
		STR 	77H 			//0531 	10F7
		LDWI 	23H 			//0532 	0023
		BTSC 	3H, 0H 			//0533 	2803
		LDWI 	24H 			//0534 	0024
		STR 	78H 			//0535 	10F8
		LSLF 	42H, 0H 		//0536 	0542
		ADDWR 	77H, 0H 		//0537 	1777
		STR 	6H 			//0538 	1086
		ORG		0539H
		LDR 	78H, 0H 			//0539 	1878
		BTSC 	3H, 0H 			//053A 	2803
		INCR 	9H, 1H 			//053B 	1A89
		STR 	7H 			//053C 	1087
		LDR 	75H, 0H 			//053D 	1875
		MOVWI 	40H[1] 		//053E 	0FC0
		LDR 	76H, 0H 			//053F 	1876
		MOVWI 	41H[1] 		//0540 	0FC1
		ORG		0541H
		RET 					//0541 	1008
		STR 	73H 			//0542 	10F3
		LDWI 	23H 			//0543 	0023
		BTSC 	3H, 0H 			//0544 	2803
		LDWI 	24H 			//0545 	0024
		STR 	74H 			//0546 	10F4
		LSLF 	42H, 0H 		//0547 	0542
		ADDWR 	73H, 0H 		//0548 	1773
		ORG		0549H
		STR 	6H 			//0549 	1086
		LDR 	74H, 0H 			//054A 	1874
		BTSC 	3H, 0H 			//054B 	2803
		INCR 	9H, 1H 			//054C 	1A89
		STR 	7H 			//054D 	1087
		MOVIW 	0H[1] 			//054E 	0F40
		RET 					//054F 	1008
		MOVLB 	0H 			//0550 	1020
		ORG		0551H
		LDR 	58H, 0H 			//0551 	1858
		STR 	21H 			//0552 	10A1
		LDR 	57H, 0H 			//0553 	1857
		STR 	20H 			//0554 	10A0
		LDR 	4AH, 0H 			//0555 	184A
		ADDWR 	9H, 0H 		//0556 	1709
		ADDWR 	9H, 0H 		//0557 	1709
		ADDWR 	9H, 0H 		//0558 	1709
		ORG		0559H
		ADDWI 	78H 			//0559 	0E78
		STR 	6H 			//055A 	1086
		LDWI 	23H 			//055B 	0023
		BTSC 	3H, 0H 			//055C 	2803
		LDWI 	24H 			//055D 	0024
		STR 	7H 			//055E 	1087
		LDR 	20H, 0H 			//055F 	1820
		MOVWI 	40H[1] 		//0560 	0FC0
		ORG		0561H
		LDR 	21H, 0H 			//0561 	1821
		MOVWI 	41H[1] 		//0562 	0FC1
		RETW 	1FH 			//0563 	041F
		STR 	75H 			//0564 	10F5
		MOVIW 	1H[1] 			//0565 	0F41
		STR 	76H 			//0566 	10F6
		LDR 	3CH, 0H 			//0567 	183C
		ADDWR 	9H, 0H 		//0568 	1709
		ORG		0569H
		ADDWR 	9H, 0H 		//0569 	1709
		ADDWR 	9H, 0H 		//056A 	1709
		RET 					//056B 	1008
		STR 	77H 			//056C 	10F7
		LDWI 	23H 			//056D 	0023
		BTSC 	3H, 0H 			//056E 	2803
		LDWI 	24H 			//056F 	0024
		STR 	78H 			//0570 	10F8
		ORG		0571H
		LSLF 	42H, 0H 		//0571 	0542
		ADDWR 	77H, 0H 		//0572 	1777
		STR 	6H 			//0573 	1086
		LDR 	78H, 0H 			//0574 	1878
		BTSC 	3H, 0H 			//0575 	2803
		INCR 	9H, 1H 			//0576 	1A89
		STR 	7H 			//0577 	1087
		MOVIW 	0H[1] 			//0578 	0F40
		ORG		0579H
		STR 	79H 			//0579 	10F9
		MOVIW 	1H[1] 			//057A 	0F41
		STR 	7AH 			//057B 	10FA
		LDR 	76H, 0H 			//057C 	1876
		SUBWR 	7AH, 0H 		//057D 	127A
		BTSS 	3H, 2H 			//057E 	2D03
		RET 					//057F 	1008
		LDR 	75H, 0H 			//0580 	1875
		ORG		0581H
		SUBWR 	79H, 0H 		//0581 	1279
		RET 					//0582 	1008
		MOVLB 	0H 			//0583 	1020
		LDR 	4AH, 0H 			//0584 	184A
		STR 	7BH 			//0585 	10FB
		RRR 	7BH, 1H 			//0586 	1CFB
		RRR 	7BH, 1H 			//0587 	1CFB
		RRR 	7BH, 0H 			//0588 	1C7B
		ORG		0589H
		ANDWI 	C0H 			//0589 	09C0
		MOVLB 	7H 			//058A 	1027
		RET 					//058B 	1008
		STR 	7BH 			//058C 	10FB
		RRR 	7BH, 1H 			//058D 	1CFB
		RRR 	7BH, 1H 			//058E 	1CFB
		RRR 	7BH, 0H 			//058F 	1C7B
		ANDWI 	C0H 			//0590 	09C0
		ORG		0591H
		MOVLB 	7H 			//0591 	1027
		RET 					//0592 	1008
		ADDWI 	28H 			//0593 	0E28
		STR 	6H 			//0594 	1086
		CLRF 	7H 			//0595 	1187
		LDR 	1H, 0H 			//0596 	1801
		STR 	51H 			//0597 	10D1
		CLRF 	52H 			//0598 	11D2
		ORG		0599H
		LDR 	4AH, 0H 			//0599 	184A
		ADDWR 	9H, 0H 		//059A 	1709
		ADDWR 	9H, 0H 		//059B 	1709
		ADDWR 	9H, 0H 		//059C 	1709
		ADDWI 	0H 			//059D 	0E00
		RET 					//059E 	1008
		ADDWR 	9H, 0H 		//059F 	1709
		ADDWR 	9H, 0H 		//05A0 	1709
		ORG		05A1H
		ADDWR 	9H, 0H 		//05A1 	1709
		ADDWI 	0H 			//05A2 	0E00
		RET 					//05A3 	1008
		ADDWI 	78H 			//05A4 	0E78
		STR 	6H 			//05A5 	1086
		LDWI 	23H 			//05A6 	0023
		BTSC 	3H, 0H 			//05A7 	2803
		LDWI 	24H 			//05A8 	0024
		ORG		05A9H
		STR 	7H 			//05A9 	1087
		LDR 	22H, 0H 			//05AA 	1822
		MOVWI 	40H[1] 		//05AB 	0FC0
		LDR 	23H, 0H 			//05AC 	1823
		MOVWI 	41H[1] 		//05AD 	0FC1
		LDR 	64H, 0H 			//05AE 	1864
		XORWR 	66H, 0H 		//05AF 	1666
		BTSS 	3H, 2H 			//05B0 	2D03
		ORG		05B1H
		RET 					//05B1 	1008
		LDR 	63H, 0H 			//05B2 	1863
		XORWR 	65H, 0H 		//05B3 	1665
		RET 					//05B4 	1008
		MOVLB 	0H 			//05B5 	1020
		LDR 	58H, 0H 			//05B6 	1858
		STR 	23H 			//05B7 	10A3
		LDR 	57H, 0H 			//05B8 	1857
		ORG		05B9H
		STR 	22H 			//05B9 	10A2
		LDR 	4AH, 0H 			//05BA 	184A
		ADDWR 	9H, 0H 		//05BB 	1709
		ADDWR 	9H, 0H 		//05BC 	1709
		ADDWR 	9H, 0H 		//05BD 	1709
		ADDWI 	2H 			//05BE 	0E02
		RET 					//05BF 	1008
		STR 	6H 			//05C0 	1086
		ORG		05C1H
		LDWI 	23H 			//05C1 	0023
		BTSC 	3H, 0H 			//05C2 	2803
		LDWI 	24H 			//05C3 	0024
		STR 	7H 			//05C4 	1087
		RET 					//05C5 	1008
		MOVLB 	7H 			//05C6 	1027
		STR 	14H 			//05C7 	1094
		STR 	15H 			//05C8 	1095
		ORG		05C9H
		CLRF 	1AH 			//05C9 	119A
		LDWI 	90H 			//05CA 	0090
		STR 	1BH 			//05CB 	109B
		LDWI 	98H 			//05CC 	0098
		STR 	1DH 			//05CD 	109D
		RET 					//05CE 	1008
		ADDWI 	0H 			//05CF 	0E00
		STR 	4H 			//05D0 	1084
		ORG		05D1H
		LDWI 	23H 			//05D1 	0023
		BTSC 	3H, 0H 			//05D2 	2803
		LDWI 	24H 			//05D3 	0024
		STR 	5H 			//05D4 	1085
		MOVIW 	0H[1] 			//05D5 	0F40
		SUBWR 	0H, 0H 		//05D6 	1200
		STR 	70H 			//05D7 	10F0
		ADDFSR 	0H, 1H 		//05D8 	0101
		ORG		05D9H
		MOVIW 	1H[1] 			//05D9 	0F41
		SUBWFB 	0H, 0H 		//05DA 	0B00
		STR 	71H 			//05DB 	10F1
		LDWI 	0H 			//05DC 	0000
		SUBWR 	71H, 0H 		//05DD 	1271
		RETW 	FFH 			//05DE 	04FF
		ADDWI 	1H 			//05DF 	0E01
		STR 	4H 			//05E0 	1084
		ORG		05E1H
		LDWI 	90H 			//05E1 	0090
		BTSC 	3H, 0H 			//05E2 	2803
		ADDWI 	1H 			//05E3 	0E01
		STR 	5H 			//05E4 	1085
		LDR 	0H, 0H 			//05E5 	1800
		RET 					//05E6 	1008
		CLRF 	FH 			//05E7 	118F
		CLRF 	10H 			//05E8 	1190
		ORG		05E9H
		MOVLB 	0H 			//05E9 	1020
		LDR 	4AH, 0H 			//05EA 	184A
		ADDWR 	9H, 0H 		//05EB 	1709
		ADDWR 	9H, 0H 		//05EC 	1709
		ADDWR 	9H, 0H 		//05ED 	1709
		ADDWI 	C0H 			//05EE 	0EC0
		MOVLB 	7H 			//05EF 	1027
		STR 	11H 			//05F0 	1091
		ORG		05F1H
		RETW 	3EH 			//05F1 	043E
		BTSC 	3H, 0H 			//05F2 	2803
		INCR 	9H, 1H 			//05F3 	1A89
		STR 	74H 			//05F4 	10F4
		LDR 	42H, 0H 			//05F5 	1842
		ADDWR 	73H, 0H 		//05F6 	1773
		STR 	4H 			//05F7 	1084
		LDR 	74H, 0H 			//05F8 	1874
		ORG		05F9H
		BTSC 	3H, 0H 			//05F9 	2803
		INCR 	74H, 0H 		//05FA 	1A74
		STR 	5H 			//05FB 	1085
		LDR 	0H, 0H 			//05FC 	1800
		RET 					//05FD 	1008
		XOWI 	FFH 			//05FE 	0AFF
		MOVLB 	7H 			//05FF 	1027
		STR 	FH 			//0600 	108F
		ORG		0601H
		CLRF 	10H 			//0601 	1190
		MOVLB 	0H 			//0602 	1020
		LDR 	4AH, 0H 			//0603 	184A
		IORWI 	80H 			//0604 	0880
		MOVLB 	7H 			//0605 	1027
		STR 	11H 			//0606 	1091
		RETW 	3EH 			//0607 	043E
		LDR 	4AH, 0H 			//0608 	184A
		ORG		0609H
		ADDWR 	9H, 0H 		//0609 	1709
		ADDWR 	9H, 0H 		//060A 	1709
		ADDWR 	9H, 0H 		//060B 	1709
		ADDWI 	0H 			//060C 	0E00
		RET 					//060D 	1008
		ADDWR 	9H, 0H 		//060E 	1709
		ADDWR 	9H, 0H 		//060F 	1709
		ADDWI 	6H 			//0610 	0E06
		ORG		0611H
		ADDWI 	0H 			//0611 	0E00
		RET 					//0612 	1008
		ADDWR 	9H, 0H 		//0613 	1709
		ADDWR 	9H, 0H 		//0614 	1709
		ADDWI 	4H 			//0615 	0E04
		ADDWI 	0H 			//0616 	0E00
		RET 					//0617 	1008
		ADDWI 	5BH 			//0618 	0E5B
		ORG		0619H
		STR 	4H 			//0619 	1084
		LDWI 	90H 			//061A 	0090
		BTSC 	3H, 0H 			//061B 	2803
		ADDWI 	1H 			//061C 	0E01
		STR 	5H 			//061D 	1085
		LDR 	0H, 0H 			//061E 	1800
		STR 	73H 			//061F 	10F3
		RET 					//0620 	1008
		ORG		0621H
		MOVIW 	0H[1] 			//0621 	0F40
		STR 	73H 			//0622 	10F3
		MOVIW 	1H[1] 			//0623 	0F41
		STR 	74H 			//0624 	10F4
		LSLF 	42H, 0H 		//0625 	0542
		ADDWI 	B9H 			//0626 	0EB9
		STR 	6H 			//0627 	1086
		RET 					//0628 	1008
		ORG		0629H
		LDR 	42H, 0H 			//0629 	1842
		ADDWI 	28H 			//062A 	0E28
		STR 	6H 			//062B 	1086
		LDWI 	6H 			//062C 	0006
		CLRF 	7H 			//062D 	1187
		STR 	70H 			//062E 	10F0
		LDR 	4AH, 0H 			//062F 	184A
		RET 					//0630 	1008
		ORG		0631H
		STR 	6H 			//0631 	1086
		CLRF 	7H 			//0632 	1187
		LDR 	72H, 0H 			//0633 	1872
		ADDWR 	9H, 0H 		//0634 	1709
		ADDWR 	9H, 0H 		//0635 	1709
		ADDWR 	9H, 0H 		//0636 	1709
		RET 					//0637 	1008
		STR 	6H 			//0638 	1086
		ORG		0639H
		CLRF 	7H 			//0639 	1187
		LDR 	57H, 0H 			//063A 	1857
		MOVWI 	40H[1] 		//063B 	0FC0
		LDR 	58H, 0H 			//063C 	1858
		MOVWI 	41H[1] 		//063D 	0FC1
		RET 					//063E 	1008
		COMR 	74H, 1H 		//063F 	19F4
		LDR 	73H, 0H 			//0640 	1873
		ORG		0641H
		ANDWR 	2CH, 1H 		//0641 	15AC
		LDR 	74H, 0H 			//0642 	1874
		ANDWR 	2DH, 1H 		//0643 	15AD
		RET 					//0644 	1008
		LDR 	3DH, 0H 			//0645 	183D
		ADDWI 	A0H 			//0646 	0EA0
		STR 	6H 			//0647 	1086
		CLRF 	7H 			//0648 	1187
		ORG		0649H
		LDR 	1H, 0H 			//0649 	1801
		RET 					//064A 	1008
		STR 	74H 			//064B 	10F4
		LDR 	2CH, 0H 			//064C 	182C
		STR 	73H 			//064D 	10F3
		INCR 	4AH, 0H 		//064E 	1A4A
		RET 					//064F 	1008
		LDWI 	6H 			//0650 	0006
		ORG		0651H
		CLRF 	35H 			//0651 	11B5
		STR 	70H 			//0652 	10F0
		LDR 	4AH, 0H 			//0653 	184A
		RET 					//0654 	1008
		STR 	72H 			//0655 	10F2
		MOVLB 	7H 			//0656 	1027
		CLRF 	FH 			//0657 	118F
		CLRF 	10H 			//0658 	1190
		ORG		0659H
		CLRF 	11H 			//0659 	1191
		LDWI 	4H 			//065A 	0004
		SUBWR 	72H, 0H 		//065B 	1272
		BTSC 	3H, 0H 			//065C 	2803
		LJUMP 	6C3H 			//065D 	3EC3
		LDWI 	1H 			//065E 	0001
		LCALL 	770H 			//065F 	3770
		MOVLP 	0H 			//0660 	0180
		ORG		0661H
		LDWI 	4H 			//0661 	0004
		MOVLB 	7H 			//0662 	1027
		STR 	12H 			//0663 	1092
		LCALL 	7B0H 			//0664 	37B0
		MOVLP 	0H 			//0665 	0180
		IORWI 	3H 			//0666 	0803
		STR 	16H 			//0667 	1096
		LDWI 	1H 			//0668 	0001
		ORG		0669H
		STR 	71H 			//0669 	10F1
		INCR 	72H, 0H 		//066A 	1A72
		LJUMP 	66DH 			//066B 	3E6D
		LSLF 	71H, 1H 		//066C 	05F1
		DECRSZ 	9H, 1H 		//066D 	1B89
		LJUMP 	66CH 			//066E 	3E6C
		LDR 	71H, 0H 			//066F 	1871
		IORWI 	10H 			//0670 	0810
		ORG		0671H
		STR 	17H 			//0671 	1097
		LDWI 	4H 			//0672 	0004
		STR 	15H 			//0673 	1095
		LDWI 	C3H 			//0674 	00C3
		LCALL 	7E7H 			//0675 	37E7
		MOVLP 	0H 			//0676 	0180
		BTSS 	3H, 2H 			//0677 	2D03
		LJUMP 	688H 			//0678 	3E88
		ORG		0679H
		MOVLB 	7H 			//0679 	1027
		BSR 	DH, 5H 			//067A 	268D
		BTSS 	DH, 6H 			//067B 	2F0D
		LJUMP 	67BH 			//067C 	3E7B
		MOVLB 	1FH 			//067D 	103F
		LCALL 	7EDH 			//067E 	37ED
		MOVLP 	0H 			//067F 	0180
		LCALL 	786H 			//0680 	3786
		ORG		0681H
		MOVLP 	0H 			//0681 	0180
		BTSC 	3H, 0H 			//0682 	2803
		INCR 	56H, 1H 		//0683 	1AD6
		LCALL 	1F0H 			//0684 	31F0
		MOVLP 	0H 			//0685 	0180
		LCALL 	794H 			//0686 	3794
		MOVLP 	0H 			//0687 	0180
		LDWI 	2H 			//0688 	0002
		ORG		0689H
		LCALL 	770H 			//0689 	3770
		MOVLP 	0H 			//068A 	0180
		LDWI 	4H 			//068B 	0004
		MOVLB 	7H 			//068C 	1027
		STR 	12H 			//068D 	1092
		LCALL 	7B0H 			//068E 	37B0
		MOVLP 	0H 			//068F 	0180
		STR 	16H 			//0690 	1096
		ORG		0691H
		LDWI 	1H 			//0691 	0001
		STR 	71H 			//0692 	10F1
		INCR 	72H, 0H 		//0693 	1A72
		LJUMP 	696H 			//0694 	3E96
		LSLF 	71H, 1H 		//0695 	05F1
		DECRSZ 	9H, 1H 		//0696 	1B89
		LJUMP 	695H 			//0697 	3E95
		LDR 	71H, 0H 			//0698 	1871
		ORG		0699H
		IORWI 	10H 			//0699 	0810
		STR 	17H 			//069A 	1097
		LDWI 	4H 			//069B 	0004
		STR 	15H 			//069C 	1095
		LDWI 	C0H 			//069D 	00C0
		LCALL 	7E7H 			//069E 	37E7
		MOVLP 	0H 			//069F 	0180
		BTSS 	3H, 2H 			//06A0 	2D03
		ORG		06A1H
		LJUMP 	6C1H 			//06A1 	3EC1
		MOVLB 	7H 			//06A2 	1027
		BSR 	DH, 5H 			//06A3 	268D
		BTSS 	DH, 6H 			//06A4 	2F0D
		LJUMP 	6A4H 			//06A5 	3EA4
		MOVLB 	1FH 			//06A6 	103F
		LCALL 	7EDH 			//06A7 	37ED
		MOVLP 	0H 			//06A8 	0180
		ORG		06A9H
		LCALL 	786H 			//06A9 	3786
		MOVLP 	0H 			//06AA 	0180
		BTSC 	3H, 0H 			//06AB 	2803
		INCR 	56H, 1H 		//06AC 	1AD6
		LCALL 	1F0H 			//06AD 	31F0
		MOVLP 	0H 			//06AE 	0180
		MOVLB 	0H 			//06AF 	1020
		LDR 	58H, 0H 			//06B0 	1858
		ORG		06B1H
		STR 	25H 			//06B1 	10A5
		LDR 	57H, 0H 			//06B2 	1857
		STR 	24H 			//06B3 	10A4
		LDR 	4AH, 0H 			//06B4 	184A
		ADDWR 	9H, 0H 		//06B5 	1709
		ADDWR 	9H, 0H 		//06B6 	1709
		ADDWR 	9H, 0H 		//06B7 	1709
		ADDWI 	4H 			//06B8 	0E04
		ORG		06B9H
		ADDWI 	78H 			//06B9 	0E78
		LCALL 	5C0H 			//06BA 	35C0
		MOVLP 	0H 			//06BB 	0180
		LDR 	24H, 0H 			//06BC 	1824
		MOVWI 	40H[1] 		//06BD 	0FC0
		LDR 	25H, 0H 			//06BE 	1825
		MOVWI 	41H[1] 		//06BF 	0FC1
		RET 					//06C0 	1008
		ORG		06C1H
		LDWI 	0H 			//06C1 	0000
		LJUMP 	770H 			//06C2 	3F70
		LDWI 	8H 			//06C3 	0008
		SUBWR 	72H, 0H 		//06C4 	1272
		BTSC 	3H, 0H 			//06C5 	2803
		LJUMP 	6FFH 			//06C6 	3EFF
		LDWI 	1H 			//06C7 	0001
		LCALL 	770H 			//06C8 	3770
		ORG		06C9H
		MOVLP 	0H 			//06C9 	0180
		LDWI 	4H 			//06CA 	0004
		MOVLB 	7H 			//06CB 	1027
		STR 	13H 			//06CC 	1093
		LCALL 	7B0H 			//06CD 	37B0
		MOVLP 	0H 			//06CE 	0180
		IORWI 	3H 			//06CF 	0803
		LCALL 	7D7H 			//06D0 	37D7
		ORG		06D1H
		MOVLP 	0H 			//06D1 	0180
		LDWI 	C3H 			//06D2 	00C3
		LCALL 	7E7H 			//06D3 	37E7
		MOVLP 	0H 			//06D4 	0180
		BTSS 	3H, 2H 			//06D5 	2D03
		LJUMP 	6E6H 			//06D6 	3EE6
		MOVLB 	7H 			//06D7 	1027
		BSR 	DH, 5H 			//06D8 	268D
		ORG		06D9H
		BTSS 	DH, 6H 			//06D9 	2F0D
		LJUMP 	6D9H 			//06DA 	3ED9
		MOVLB 	1FH 			//06DB 	103F
		LCALL 	7F4H 			//06DC 	37F4
		MOVLP 	0H 			//06DD 	0180
		LCALL 	786H 			//06DE 	3786
		MOVLP 	0H 			//06DF 	0180
		BTSC 	3H, 0H 			//06E0 	2803
		ORG		06E1H
		INCR 	56H, 1H 		//06E1 	1AD6
		LCALL 	1F0H 			//06E2 	31F0
		MOVLP 	0H 			//06E3 	0180
		LCALL 	794H 			//06E4 	3794
		MOVLP 	0H 			//06E5 	0180
		LDWI 	2H 			//06E6 	0002
		LCALL 	770H 			//06E7 	3770
		MOVLP 	0H 			//06E8 	0180
		ORG		06E9H
		LDWI 	4H 			//06E9 	0004
		MOVLB 	7H 			//06EA 	1027
		STR 	13H 			//06EB 	1093
		LCALL 	7B0H 			//06EC 	37B0
		MOVLP 	0H 			//06ED 	0180
		LCALL 	7D7H 			//06EE 	37D7
		MOVLP 	0H 			//06EF 	0180
		LDWI 	C0H 			//06F0 	00C0
		ORG		06F1H
		LCALL 	7E7H 			//06F1 	37E7
		MOVLP 	0H 			//06F2 	0180
		BTSS 	3H, 2H 			//06F3 	2D03
		LJUMP 	6FDH 			//06F4 	3EFD
		MOVLB 	7H 			//06F5 	1027
		BSR 	DH, 5H 			//06F6 	268D
		BTSS 	DH, 6H 			//06F7 	2F0D
		LJUMP 	6F7H 			//06F8 	3EF7
		ORG		06F9H
		MOVLB 	1FH 			//06F9 	103F
		LCALL 	7F4H 			//06FA 	37F4
		MOVLP 	0H 			//06FB 	0180
		LJUMP 	6A9H 			//06FC 	3EA9
		LDWI 	0H 			//06FD 	0000
		LJUMP 	770H 			//06FE 	3F70
		LDWI 	CH 			//06FF 	000C
		SUBWR 	72H, 0H 		//0700 	1272
		ORG		0701H
		LDWI 	1H 			//0701 	0001
		BTSC 	3H, 0H 			//0702 	2803
		LJUMP 	73BH 			//0703 	3F3B
		LCALL 	770H 			//0704 	3770
		MOVLP 	0H 			//0705 	0180
		LDWI 	4H 			//0706 	0004
		MOVLB 	7H 			//0707 	1027
		STR 	14H 			//0708 	1094
		ORG		0709H
		LCALL 	7B0H 			//0709 	37B0
		MOVLP 	0H 			//070A 	0180
		IORWI 	3H 			//070B 	0803
		LCALL 	7B7H 			//070C 	37B7
		MOVLP 	0H 			//070D 	0180
		LDWI 	C3H 			//070E 	00C3
		LCALL 	7E7H 			//070F 	37E7
		MOVLP 	0H 			//0710 	0180
		ORG		0711H
		BTSS 	3H, 2H 			//0711 	2D03
		LJUMP 	722H 			//0712 	3F22
		MOVLB 	7H 			//0713 	1027
		BSR 	DH, 5H 			//0714 	268D
		BTSS 	DH, 6H 			//0715 	2F0D
		LJUMP 	715H 			//0716 	3F15
		MOVLB 	1FH 			//0717 	103F
		LCALL 	7A9H 			//0718 	37A9
		ORG		0719H
		MOVLP 	0H 			//0719 	0180
		LCALL 	786H 			//071A 	3786
		MOVLP 	0H 			//071B 	0180
		BTSC 	3H, 0H 			//071C 	2803
		INCR 	56H, 1H 		//071D 	1AD6
		LCALL 	1F0H 			//071E 	31F0
		MOVLP 	0H 			//071F 	0180
		LCALL 	794H 			//0720 	3794
		ORG		0721H
		MOVLP 	0H 			//0721 	0180
		LDWI 	2H 			//0722 	0002
		LCALL 	770H 			//0723 	3770
		MOVLP 	0H 			//0724 	0180
		LDWI 	4H 			//0725 	0004
		MOVLB 	7H 			//0726 	1027
		STR 	14H 			//0727 	1094
		LCALL 	7B0H 			//0728 	37B0
		ORG		0729H
		MOVLP 	0H 			//0729 	0180
		LCALL 	7B7H 			//072A 	37B7
		MOVLP 	0H 			//072B 	0180
		LDWI 	C0H 			//072C 	00C0
		LCALL 	7E7H 			//072D 	37E7
		MOVLP 	0H 			//072E 	0180
		BTSS 	3H, 2H 			//072F 	2D03
		LJUMP 	739H 			//0730 	3F39
		ORG		0731H
		MOVLB 	7H 			//0731 	1027
		BSR 	DH, 5H 			//0732 	268D
		BTSS 	DH, 6H 			//0733 	2F0D
		LJUMP 	733H 			//0734 	3F33
		MOVLB 	1FH 			//0735 	103F
		LCALL 	7A9H 			//0736 	37A9
		MOVLP 	0H 			//0737 	0180
		LJUMP 	6A9H 			//0738 	3EA9
		ORG		0739H
		LDWI 	0H 			//0739 	0000
		LJUMP 	770H 			//073A 	3F70
		LCALL 	770H 			//073B 	3770
		MOVLP 	0H 			//073C 	0180
		LDWI 	4H 			//073D 	0004
		MOVLB 	7H 			//073E 	1027
		STR 	14H 			//073F 	1094
		LDWI 	3H 			//0740 	0003
		ORG		0741H
		STR 	1AH 			//0741 	109A
		LCALL 	7FBH 			//0742 	37FB
		MOVLP 	0H 			//0743 	0180
		LCALL 	7B0H 			//0744 	37B0
		MOVLP 	0H 			//0745 	0180
		IORWI 	3H 			//0746 	0803
		LCALL 	7C7H 			//0747 	37C7
		MOVLP 	0H 			//0748 	0180
		ORG		0749H
		BTSS 	3H, 2H 			//0749 	2D03
		LJUMP 	75AH 			//074A 	3F5A
		MOVLB 	7H 			//074B 	1027
		BSR 	DH, 5H 			//074C 	268D
		BTSS 	DH, 6H 			//074D 	2F0D
		LJUMP 	74DH 			//074E 	3F4D
		MOVLB 	1FH 			//074F 	103F
		LCALL 	7A9H 			//0750 	37A9
		ORG		0751H
		MOVLP 	0H 			//0751 	0180
		LCALL 	786H 			//0752 	3786
		MOVLP 	0H 			//0753 	0180
		BTSC 	3H, 0H 			//0754 	2803
		INCR 	56H, 1H 		//0755 	1AD6
		LCALL 	1F0H 			//0756 	31F0
		MOVLP 	0H 			//0757 	0180
		LCALL 	794H 			//0758 	3794
		ORG		0759H
		MOVLP 	0H 			//0759 	0180
		LDWI 	2H 			//075A 	0002
		LCALL 	770H 			//075B 	3770
		MOVLP 	0H 			//075C 	0180
		LDWI 	4H 			//075D 	0004
		MOVLB 	7H 			//075E 	1027
		STR 	14H 			//075F 	1094
		CLRF 	1AH 			//0760 	119A
		ORG		0761H
		LCALL 	7FBH 			//0761 	37FB
		MOVLP 	0H 			//0762 	0180
		LCALL 	7B0H 			//0763 	37B0
		MOVLP 	0H 			//0764 	0180
		LCALL 	7C7H 			//0765 	37C7
		MOVLP 	0H 			//0766 	0180
		BTSS 	3H, 2H 			//0767 	2D03
		LJUMP 	76EH 			//0768 	3F6E
		ORG		0769H
		MOVLB 	7H 			//0769 	1027
		BSR 	DH, 5H 			//076A 	268D
		BTSC 	DH, 6H 			//076B 	2B0D
		LJUMP 	735H 			//076C 	3F35
		LJUMP 	76BH 			//076D 	3F6B
		LDWI 	0H 			//076E 	0000
		LJUMP 	770H 			//076F 	3F70
		STR 	70H 			//0770 	10F0
		ORG		0771H
		COMR 	70H, 0H 		//0771 	1970
		MOVLB 	7H 			//0772 	1027
		STR 	CH 			//0773 	108C
		CLRF 	DH 			//0774 	118D
		LDWI 	3H 			//0775 	0003
		STR 	EH 			//0776 	108E
		CLRF 	12H 			//0777 	1192
		CLRF 	16H 			//0778 	1196
		ORG		0779H
		CLRF 	17H 			//0779 	1197
		CLRF 	13H 			//077A 	1193
		CLRF 	18H 			//077B 	1198
		CLRF 	19H 			//077C 	1199
		CLRF 	14H 			//077D 	1194
		CLRF 	1AH 			//077E 	119A
		CLRF 	1BH 			//077F 	119B
		CLRF 	15H 			//0780 	1195
		ORG		0781H
		CLRF 	1CH 			//0781 	119C
		CLRF 	1DH 			//0782 	119D
		MOVLB 	1H 			//0783 	1021
		BSR 	1AH, 7H 			//0784 	279A
		RET 					//0785 	1008
		MOVLB 	0H 			//0786 	1020
		ADDWR 	51H, 1H 		//0787 	17D1
		BTSC 	3H, 0H 			//0788 	2803
		ORG		0789H
		INCR 	52H, 1H 		//0789 	1AD2
		MOVLB 	1FH 			//078A 	103F
		LDR 	2DH, 0H 			//078B 	182D
		MOVLB 	0H 			//078C 	1020
		STR 	56H 			//078D 	10D6
		CLRF 	55H 			//078E 	11D5
		MOVLB 	1FH 			//078F 	103F
		LDR 	2CH, 0H 			//0790 	182C
		ORG		0791H
		MOVLB 	0H 			//0791 	1020
		ADDWR 	55H, 1H 		//0792 	17D5
		RET 					//0793 	1008
		MOVLB 	0H 			//0794 	1020
		LDR 	58H, 0H 			//0795 	1858
		STR 	27H 			//0796 	10A7
		LDR 	57H, 0H 			//0797 	1857
		STR 	26H 			//0798 	10A6
		ORG		0799H
		LDR 	4AH, 0H 			//0799 	184A
		ADDWR 	9H, 0H 		//079A 	1709
		ADDWR 	9H, 0H 		//079B 	1709
		ADDWR 	9H, 0H 		//079C 	1709
		ADDWI 	6H 			//079D 	0E06
		ADDWI 	78H 			//079E 	0E78
		STR 	6H 			//079F 	1086
		LDWI 	23H 			//07A0 	0023
		ORG		07A1H
		BTSC 	3H, 0H 			//07A1 	2803
		LDWI 	24H 			//07A2 	0024
		STR 	7H 			//07A3 	1087
		LDR 	26H, 0H 			//07A4 	1826
		MOVWI 	40H[1] 		//07A5 	0FC0
		LDR 	27H, 0H 			//07A6 	1827
		MOVWI 	41H[1] 		//07A7 	0FC1
		RET 					//07A8 	1008
		ORG		07A9H
		LDR 	25H, 0H 			//07A9 	1825
		MOVLB 	0H 			//07AA 	1020
		STR 	52H 			//07AB 	10D2
		CLRF 	51H 			//07AC 	11D1
		MOVLB 	1FH 			//07AD 	103F
		LDR 	24H, 0H 			//07AE 	1824
		RET 					//07AF 	1008
		LDR 	72H, 0H 			//07B0 	1872
		ORG		07B1H
		STR 	71H 			//07B1 	10F1
		RRR 	71H, 1H 			//07B2 	1CF1
		RRR 	71H, 1H 			//07B3 	1CF1
		RRR 	71H, 0H 			//07B4 	1C71
		ANDWI 	C0H 			//07B5 	09C0
		RET 					//07B6 	1008
		STR 	1AH 			//07B7 	109A
		LDWI 	1H 			//07B8 	0001
		ORG		07B9H
		STR 	71H 			//07B9 	10F1
		LDR 	72H, 0H 			//07BA 	1872
		ADDWI 	F8H 			//07BB 	0EF8
		INCR 	9H, 1H 			//07BC 	1A89
		LJUMP 	7BFH 			//07BD 	3FBF
		LSLF 	71H, 1H 		//07BE 	05F1
		DECRSZ 	9H, 1H 		//07BF 	1B89
		LJUMP 	7BEH 			//07C0 	3FBE
		ORG		07C1H
		LDR 	71H, 0H 			//07C1 	1871
		IORWI 	10H 			//07C2 	0810
		STR 	1BH 			//07C3 	109B
		LDWI 	4H 			//07C4 	0004
		STR 	15H 			//07C5 	1095
		RET 					//07C6 	1008
		STR 	1CH 			//07C7 	109C
		LDWI 	1H 			//07C8 	0001
		ORG		07C9H
		STR 	71H 			//07C9 	10F1
		LDR 	72H, 0H 			//07CA 	1872
		ADDWI 	F4H 			//07CB 	0EF4
		INCR 	9H, 1H 			//07CC 	1A89
		LJUMP 	7CFH 			//07CD 	3FCF
		LSLF 	71H, 1H 		//07CE 	05F1
		DECRSZ 	9H, 1H 		//07CF 	1B89
		LJUMP 	7CEH 			//07D0 	3FCE
		ORG		07D1H
		LDR 	71H, 0H 			//07D1 	1871
		IORWI 	98H 			//07D2 	0898
		STR 	1DH 			//07D3 	109D
		MOVLB 	0H 			//07D4 	1020
		DECR 	35H, 0H 		//07D5 	1335
		RET 					//07D6 	1008
		STR 	18H 			//07D7 	1098
		LDWI 	1H 			//07D8 	0001
		ORG		07D9H
		STR 	71H 			//07D9 	10F1
		LDR 	72H, 0H 			//07DA 	1872
		ADDWI 	FCH 			//07DB 	0EFC
		INCR 	9H, 1H 			//07DC 	1A89
		LJUMP 	7DFH 			//07DD 	3FDF
		LSLF 	71H, 1H 		//07DE 	05F1
		DECRSZ 	9H, 1H 		//07DF 	1B89
		LJUMP 	7DEH 			//07E0 	3FDE
		ORG		07E1H
		LDR 	71H, 0H 			//07E1 	1871
		IORWI 	10H 			//07E2 	0810
		STR 	19H 			//07E3 	1099
		LDWI 	4H 			//07E4 	0004
		STR 	15H 			//07E5 	1095
		RET 					//07E6 	1008
		STR 	1CH 			//07E7 	109C
		LDWI 	18H 			//07E8 	0018
		ORG		07E9H
		STR 	1DH 			//07E9 	109D
		MOVLB 	0H 			//07EA 	1020
		DECR 	35H, 0H 		//07EB 	1335
		RET 					//07EC 	1008
		LDR 	15H, 0H 			//07ED 	1815
		MOVLB 	0H 			//07EE 	1020
		STR 	52H 			//07EF 	10D2
		CLRF 	51H 			//07F0 	11D1
		ORG		07F1H
		MOVLB 	1FH 			//07F1 	103F
		LDR 	14H, 0H 			//07F2 	1814
		RET 					//07F3 	1008
		LDR 	1DH, 0H 			//07F4 	181D
		MOVLB 	0H 			//07F5 	1020
		STR 	52H 			//07F6 	10D2
		CLRF 	51H 			//07F7 	11D1
		MOVLB 	1FH 			//07F8 	103F
		ORG		07F9H
		LDR 	1CH, 0H 			//07F9 	181C
		RET 					//07FA 	1008
		LDWI 	90H 			//07FB 	0090
		STR 	1BH 			//07FC 	109B
		LDWI 	4H 			//07FD 	0004
		STR 	15H 			//07FE 	1095
		RET 					//07FF 	1008
		ORG		0DDFH
		LDWI 	23H 			//0DDF 	0023
		STR 	5H 			//0DE0 	1085
		LDWI 	F0H 			//0DE1 	00F0
		STR 	7EH 			//0DE2 	10FE
		LDWI 	0H 			//0DE3 	0000
		CLRF 	7FH 			//0DE4 	11FF
		MOVLP 	0H 			//0DE5 	0180
		LCALL 	51H 			//0DE6 	3051
		ORG		0DE7H
		MOVLP 	DH 			//0DE7 	018D
		LDWI 	20H 			//0DE8 	0020
		CLRF 	7DH 			//0DE9 	11FD
		CLRF 	67H 			//0DEA 	11E7
		STR 	4H 			//0DEB 	1084
		LDWI 	0H 			//0DEC 	0000
		STR 	5H 			//0DED 	1085
		LDWI 	2CH 			//0DEE 	002C
		ORG		0DEFH
		STR 	7EH 			//0DEF 	10FE
		LDWI 	0H 			//0DF0 	0000
		STR 	7FH 			//0DF1 	10FF
		MOVLP 	0H 			//0DF2 	0180
		LCALL 	51H 			//0DF3 	3051
		MOVLP 	DH 			//0DF4 	018D
		LDWI 	A0H 			//0DF5 	00A0
		STR 	4H 			//0DF6 	1084
		ORG		0DF7H
		LDWI 	0H 			//0DF7 	0000
		STR 	5H 			//0DF8 	1085
		LDWI 	2BH 			//0DF9 	002B
		STR 	7EH 			//0DFA 	10FE
		LDWI 	0H 			//0DFB 	0000
		STR 	7FH 			//0DFC 	10FF
		MOVLP 	0H 			//0DFD 	0180
		LCALL 	51H 			//0DFE 	3051
		ORG		0DFFH
		MOVLP 	DH 			//0DFF 	018D
		LDWI 	B0H 			//0E00 	00B0
		STR 	63H 			//0E01 	10E3
		LDWI 	4H 			//0E02 	0004
		STR 	64H 			//0E03 	10E4
		LDWI 	B0H 			//0E04 	00B0
		STR 	65H 			//0E05 	10E5
		LDWI 	4H 			//0E06 	0004
		ORG		0E07H
		STR 	66H 			//0E07 	10E6
		MOVLB 	1H 			//0E08 	1021
		LDWI 	11H 			//0E09 	0011
		STR 	4BH 			//0E0A 	10CB
		LDWI 	22H 			//0E0B 	0022
		STR 	4CH 			//0E0C 	10CC
		LDWI 	33H 			//0E0D 	0033
		STR 	4DH 			//0E0E 	10CD
		ORG		0E0FH
		LDWI 	44H 			//0E0F 	0044
		STR 	4EH 			//0E10 	10CE
		LDWI 	55H 			//0E11 	0055
		STR 	4FH 			//0E12 	10CF
		LDWI 	66H 			//0E13 	0066
		STR 	50H 			//0E14 	10D0
		LDWI 	77H 			//0E15 	0077
		STR 	51H 			//0E16 	10D1
		ORG		0E17H
		LDWI 	88H 			//0E17 	0088
		STR 	52H 			//0E18 	10D2
		LDWI 	99H 			//0E19 	0099
		STR 	53H 			//0E1A 	10D3
		LDWI 	AAH 			//0E1B 	00AA
		STR 	54H 			//0E1C 	10D4
		LDWI 	0H 			//0E1D 	0000
		STR 	55H 			//0E1E 	10D5
		ORG		0E1FH
		LDWI 	58H 			//0E1F 	0058
		STR 	56H 			//0E20 	10D6
		LDWI 	2H 			//0E21 	0002
		STR 	57H 			//0E22 	10D7
		LDWI 	E8H 			//0E23 	00E8
		STR 	58H 			//0E24 	10D8
		LDWI 	3H 			//0E25 	0003
		STR 	59H 			//0E26 	10D9
		ORG		0E27H
		MOVLB 	0H 			//0E27 	1020
		LJUMP 	629H 			//0E28 	3E29

		//;main.c: 273: SysInit();
		LCALL 	68CH 			//0E29 	368C
		MOVLP 	DH 			//0E2A 	018D

		//;main.c: 274: unsigned int data[3];
		//;main.c: 275: UART_INITIAL();
		LCALL 	6C3H 			//0E2B 	36C3
		MOVLP 	DH 			//0E2C 	018D

		//;main.c: 276: DelayMs(100);
		LDWI 	64H 			//0E2D 	0064
		LCALL 	794H 			//0E2E 	3794
		ORG		0E2FH
		MOVLP 	DH 			//0E2F 	018D

		//;main.c: 284: Time4Initial();
		LCALL 	6B2H 			//0E30 	36B2
		MOVLP 	DH 			//0E31 	018D

		//;main.c: 285: TouchInital();
		LCALL 	6EEH 			//0E32 	36EE
		MOVLP 	DH 			//0E33 	018D

		//;main.c: 288: varKeyPushCnt = 0;
		CLRF 	32H 			//0E34 	11B2
		CLRF 	33H 			//0E35 	11B3

		//;main.c: 289: RB0=1;RD3=1;RA0=1;RB1=1;
		BSR 	DH, 0H 			//0E36 	240D
		ORG		0E37H
		BSR 	FH, 3H 			//0E37 	258F
		BSR 	CH, 0H 			//0E38 	240C
		BSR 	DH, 1H 			//0E39 	248D

		//;main.c: 293: {
		//;main.c: 301: if(unionAllTimeFlag.bitData.B1)
		BTSS 	48H, 1H 		//0E3A 	2CC8
		LJUMP 	63AH 			//0E3B 	3E3A

		//;main.c: 305: TouchTimeCount = 0;
		BCR 	48H, 1H 			//0E3C 	20C8

		//;main.c: 306: readKeyNum = 0;
		MOVLB 	1H 			//0E3D 	1021
		CLRF 	49H 			//0E3E 	11C9
		ORG		0E3FH
		CLRF 	4AH 			//0E3F 	11CA

		//;main.c: 307: readKeyNum = TouchKeyScan();
		LCALL 	7AEH 			//0E40 	37AE
		MOVLP 	DH 			//0E41 	018D
		LDR 	5CH, 0H 			//0E42 	185C
		MOVLB 	1H 			//0E43 	1021
		STR 	4AH 			//0E44 	10CA
		MOVLB 	0H 			//0E45 	1020
		LDR 	5BH, 0H 			//0E46 	185B
		ORG		0E47H
		MOVLB 	1H 			//0E47 	1021
		STR 	49H 			//0E48 	10C9

		//;main.c: 309: unionAllKeyFlag.varCharData = (unsigned char)readKeyNum;
		LDR 	49H, 0H 			//0E49 	1849
		MOVLB 	0H 			//0E4A 	1020
		STR 	47H 			//0E4B 	10C7

		//;main.c: 310: RB4=0;
		BCR 	DH, 4H 			//0E4C 	220D

		//;main.c: 311: if(unionAllKeyFlag.bitData.B5)
		BTSS 	47H, 5H 		//0E4D 	2EC7
		LJUMP 	681H 			//0E4E 	3E81
		ORG		0E4FH

		//;main.c: 312: {
		//;main.c: 313: RD1=1;
		BSR 	FH, 1H 			//0E4F 	248F

		//;main.c: 314: ++varKeyPushCnt;
		INCR 	32H, 1H 		//0E50 	1AB2
		BTSC 	3H, 2H 			//0E51 	2903
		INCR 	33H, 1H 		//0E52 	1AB3

		//;main.c: 315: if(varKeyPushCnt >= 625)
		LDWI 	2H 			//0E53 	0002
		SUBWR 	33H, 0H 		//0E54 	1233
		LDWI 	71H 			//0E55 	0071
		BTSC 	3H, 2H 			//0E56 	2903
		ORG		0E57H
		SUBWR 	32H, 0H 		//0E57 	1232
		BTSS 	3H, 0H 			//0E58 	2C03
		LJUMP 	663H 			//0E59 	3E63
		LDWI 	71H 			//0E5A 	0071

		//;main.c: 316: {
		//;main.c: 317: RC6=1;
		BSR 	EH, 6H 			//0E5B 	270E

		//;main.c: 318: varKeyPushCnt = 625;
		STR 	32H 			//0E5C 	10B2
		LDWI 	2H 			//0E5D 	0002
		STR 	33H 			//0E5E 	10B3
		ORG		0E5FH

		//;main.c: 319: key_status=1;
		MOVLB 	1H 			//0E5F 	1021
		CLRF 	47H 			//0E60 	11C7
		INCR 	47H, 1H 		//0E61 	1AC7
		LJUMP 	66EH 			//0E62 	3E6E

		//;main.c: 322: }
		//;main.c: 323: else if(varKeyPushCnt >= 15)
		LDWI 	0H 			//0E63 	0000
		SUBWR 	33H, 0H 		//0E64 	1233
		LDWI 	FH 			//0E65 	000F
		BTSC 	3H, 2H 			//0E66 	2903
		ORG		0E67H
		SUBWR 	32H, 0H 		//0E67 	1232
		BTSS 	3H, 0H 			//0E68 	2C03
		LJUMP 	670H 			//0E69 	3E70

		//;main.c: 324: {
		//;main.c: 325: RD0=1;
		BSR 	FH, 0H 			//0E6A 	240F

		//;main.c: 326: RC6=0;
		BCR 	EH, 6H 			//0E6B 	230E

		//;main.c: 327: key_status=0;
		MOVLB 	1H 			//0E6C 	1021
		CLRF 	47H 			//0E6D 	11C7
		CLRF 	48H 			//0E6E 	11C8
		ORG		0E6FH

		//;main.c: 330: }
		LJUMP 	672H 			//0E6F 	3E72

		//;main.c: 331: else
		//;main.c: 332: {
		//;main.c: 333: RD0=0;
		BCR 	FH, 0H 			//0E70 	200F

		//;main.c: 334: RC6=0;
		BCR 	EH, 6H 			//0E71 	230E

		//;main.c: 335: }
		//;main.c: 336: data[0]=key_status;
		MOVLB 	1H 			//0E72 	1021
		LDR 	48H, 0H 			//0E73 	1848
		MOVLB 	0H 			//0E74 	1020
		STR 	5EH 			//0E75 	10DE
		MOVLB 	1H 			//0E76 	1021
		ORG		0E77H
		LDR 	47H, 0H 			//0E77 	1847
		MOVLB 	0H 			//0E78 	1020
		STR 	5DH 			//0E79 	10DD
		LDWI 	5DH 			//0E7A 	005D

		//;main.c: 337: flag=1;
		CLRF 	34H 			//0E7B 	11B4
		INCR 	34H, 1H 		//0E7C 	1AB4

		//;main.c: 338: uart_data_send(data);
		LCALL 	6D8H 			//0E7D 	36D8
		MOVLP 	DH 			//0E7E 	018D
		ORG		0E7FH

		//;main.c: 339: unionAllKeyFlag.bitData.B5 = 0;
		BCR 	47H, 5H 			//0E7F 	22C7

		//;main.c: 340: }
		LJUMP 	63AH 			//0E80 	3E3A

		//;main.c: 341: else
		//;main.c: 342: {
		//;main.c: 346: key_status=0;
		MOVLB 	1H 			//0E81 	1021
		CLRF 	47H 			//0E82 	11C7
		CLRF 	48H 			//0E83 	11C8

		//;main.c: 347: RD1=0;RC6=0;RB4=0;RD0=0;
		MOVLB 	0H 			//0E84 	1020
		BCR 	FH, 1H 			//0E85 	208F
		BCR 	EH, 6H 			//0E86 	230E
		ORG		0E87H
		BCR 	DH, 4H 			//0E87 	220D
		BCR 	FH, 0H 			//0E88 	200F

		//;main.c: 348: varKeyPushCnt = 0;
		CLRF 	32H 			//0E89 	11B2
		CLRF 	33H 			//0E8A 	11B3
		LJUMP 	63AH 			//0E8B 	3E3A

		//;main.c: 131: OSCCON = 0B01110001;
		LDWI 	71H 			//0E8C 	0071
		MOVLB 	1H 			//0E8D 	1021
		STR 	19H 			//0E8E 	1099
		ORG		0E8FH

		//;main.c: 164: PORTA = 0x00;
		MOVLB 	0H 			//0E8F 	1020
		CLRF 	CH 			//0E90 	118C

		//;main.c: 165: PORTB = 0x00;
		CLRF 	DH 			//0E91 	118D

		//;main.c: 166: PORTC = 0x00;
		CLRF 	EH 			//0E92 	118E

		//;main.c: 167: PORTD = 0x00;
		CLRF 	FH 			//0E93 	118F

		//;main.c: 169: TRISA = 0B11110100;
		LDWI 	F4H 			//0E94 	00F4
		MOVLB 	1H 			//0E95 	1021
		STR 	CH 			//0E96 	108C
		ORG		0E97H

		//;main.c: 170: TRISB = 0x10000000;
		CLRF 	DH 			//0E97 	118D

		//;main.c: 174: TRISC = 0B00000011;
		LDWI 	3H 			//0E98 	0003
		STR 	EH 			//0E99 	108E

		//;main.c: 175: TRISD = 0B00100000;
		LDWI 	20H 			//0E9A 	0020
		STR 	FH 			//0E9B 	108F

		//;main.c: 177: PSRC0 = 0B11111111;
		LDWI 	FFH 			//0E9C 	00FF
		MOVLB 	2H 			//0E9D 	1022
		STR 	1AH 			//0E9E 	109A
		ORG		0E9FH

		//;main.c: 179: PSRC1 = 0B11111111;
		STR 	1BH 			//0E9F 	109B

		//;main.c: 181: PSINK0= 0B11111111;
		MOVLB 	3H 			//0EA0 	1023
		STR 	1AH 			//0EA1 	109A

		//;main.c: 182: PSINK1= 0B11111111;
		STR 	1BH 			//0EA2 	109B

		//;main.c: 183: PSINK2= 0B11111111;
		STR 	1CH 			//0EA3 	109C

		//;main.c: 184: PSINK3= 0B11111111;
		STR 	1DH 			//0EA4 	109D

		//;main.c: 186: WPUA = 0x00;
		CLRF 	CH 			//0EA5 	118C

		//;main.c: 187: WPUB = 0x00;
		CLRF 	DH 			//0EA6 	118D
		ORG		0EA7H

		//;main.c: 188: WPUC = 0x00;
		CLRF 	EH 			//0EA7 	118E

		//;main.c: 189: WPUD = 0x00;
		CLRF 	FH 			//0EA8 	118F

		//;main.c: 190: WPDA = 0x00;
		MOVLB 	4H 			//0EA9 	1024
		CLRF 	CH 			//0EAA 	118C

		//;main.c: 191: WPDB = 0x00;
		CLRF 	DH 			//0EAB 	118D

		//;main.c: 192: WPDC = 0x00;
		CLRF 	EH 			//0EAC 	118E

		//;main.c: 193: WPDD = 0x00;
		CLRF 	FH 			//0EAD 	118F

		//;main.c: 195: ANSELA = 0B00000000;
		MOVLB 	3H 			//0EAE 	1023
		ORG		0EAFH
		CLRF 	17H 			//0EAF 	1197

		//;main.c: 197: INTCON = 0;
		CLRF 	BH 			//0EB0 	118B
		RET 					//0EB1 	1008

		//;main.c: 207: PCKEN |=0B00001000;
		MOVLB 	1H 			//0EB2 	1021
		BSR 	1AH, 3H 			//0EB3 	259A

		//;main.c: 211: TIM4CR1 =0B00000101;
		LDWI 	5H 			//0EB4 	0005
		MOVLB 	2H 			//0EB5 	1022
		STR 	11H 			//0EB6 	1091
		ORG		0EB7H

		//;main.c: 241: TIM4IER =0B00000001;
		LDWI 	1H 			//0EB7 	0001
		STR 	12H 			//0EB8 	1092

		//;main.c: 244: TIM4SR =0B00000000;
		CLRF 	13H 			//0EB9 	1193

		//;main.c: 253: TIM4EGR =0B00000000;
		CLRF 	14H 			//0EBA 	1194

		//;main.c: 258: TIM4CNTR=0;
		CLRF 	15H 			//0EBB 	1195

		//;main.c: 261: TIM4PSCR=0B00000111;
		LDWI 	7H 			//0EBC 	0007
		STR 	16H 			//0EBD 	1096

		//;main.c: 262: TIM4ARR =249;
		LDWI 	F9H 			//0EBE 	00F9
		ORG		0EBFH
		STR 	17H 			//0EBF 	1097

		//;main.c: 268: INTCON |= 0B11000000;
		LDWI 	C0H 			//0EC0 	00C0
		IORWR 	BH, 1H 		//0EC1 	148B
		RET 					//0EC2 	1008

		//;TEST_62F08X_UART.C: 29: PCKEN |=0B00100000;
		MOVLB 	1H 			//0EC3 	1021
		BSR 	1AH, 5H 			//0EC4 	269A

		//;TEST_62F08X_UART.C: 32: AFP2 |=0B00000011;
		LDWI 	3H 			//0EC5 	0003
		MOVLB 	2H 			//0EC6 	1022
		ORG		0EC7H
		IORWR 	1DH, 1H 		//0EC7 	149D

		//;TEST_62F08X_UART.C: 34: URIER =0B00100001;
		LDWI 	21H 			//0EC8 	0021
		MOVLB 	9H 			//0EC9 	1029
		STR 	EH 			//0ECA 	108E

		//;TEST_62F08X_UART.C: 35: URLCR =0B00000001;
		LDWI 	1H 			//0ECB 	0001
		STR 	FH 			//0ECC 	108F

		//;TEST_62F08X_UART.C: 36: URMCR =0B00011000;
		LDWI 	18H 			//0ECD 	0018
		STR 	11H 			//0ECE 	1091
		ORG		0ECFH

		//;TEST_62F08X_UART.C: 38: URDLL =104;
		LDWI 	68H 			//0ECF 	0068
		STR 	14H 			//0ED0 	1094

		//;TEST_62F08X_UART.C: 39: URDLH =0;
		CLRF 	15H 			//0ED1 	1195
		LDWI 	C0H 			//0ED2 	00C0

		//;TEST_62F08X_UART.C: 40: TCF=1;
		BSR 	1CH, 0H 			//0ED3 	241C

		//;TEST_62F08X_UART.C: 41: INTCON=0B11000000;
		STR 	BH 			//0ED4 	108B

		//;TEST_62F08X_UART.C: 42: UROD=1;
		MOVLB 	4H 			//0ED5 	1024
		BSR 	1FH, 0H 			//0ED6 	241F
		ORG		0ED7H
		RET 					//0ED7 	1008
		STR 	71H 			//0ED8 	10F1

		//;TEST_62F08X_UART.C: 113: flag=1;
		CLRF 	34H 			//0ED9 	11B4
		INCR 	34H, 1H 		//0EDA 	1AB4

		//;TEST_62F08X_UART.C: 114: if(flag==1)
		DECRSZ 	34H, 0H 		//0EDB 	1B34
		LJUMP 	6ECH 			//0EDC 	3EEC

		//;TEST_62F08X_UART.C: 115: {
		//;TEST_62F08X_UART.C: 116: for(i = 0;i<1;i++)
		CLRF 	72H 			//0EDD 	11F2

		//;TEST_62F08X_UART.C: 117: {
		//;TEST_62F08X_UART.C: 119: URDATAL =buff[i];
		LDR 	72H, 0H 			//0EDE 	1872
		ORG		0EDFH
		ADDWR 	71H, 0H 		//0EDF 	1771
		STR 	70H 			//0EE0 	10F0
		STR 	6H 			//0EE1 	1086
		CLRF 	7H 			//0EE2 	1187
		LDR 	1H, 0H 			//0EE3 	1801
		MOVLB 	9H 			//0EE4 	1029
		STR 	CH 			//0EE5 	108C
		INCR 	72H, 1H 		//0EE6 	1AF2
		ORG		0EE7H
		LDR 	72H, 0H 			//0EE7 	1872
		BTSC 	3H, 2H 			//0EE8 	2903
		LJUMP 	6DEH 			//0EE9 	3EDE

		//;TEST_62F08X_UART.C: 120: }
		//;TEST_62F08X_UART.C: 121: flag=0;
		MOVLB 	0H 			//0EEA 	1020
		CLRF 	34H 			//0EEB 	11B4

		//;TEST_62F08X_UART.C: 122: }
		//;TEST_62F08X_UART.C: 123: flag=0;
		CLRF 	34H 			//0EEC 	11B4
		RET 					//0EED 	1008
		MOVLB 	1H 			//0EEE 	1021
		ORG		0EEFH
		BSR 	CH, 4H 			//0EEF 	260C
		BSR 	CH, 5H 			//0EF0 	268C
		BSR 	CH, 6H 			//0EF1 	270C
		BSR 	CH, 7H 			//0EF2 	278C
		BSR 	FH, 5H 			//0EF3 	268F
		BSR 	EH, 0H 			//0EF4 	240E
		BSR 	EH, 1H 			//0EF5 	248E
		BSR 	DH, 7H 			//0EF6 	278D
		ORG		0EF7H
		BSR 	EH, 7H 			//0EF7 	278E
		MOVLB 	0H 			//0EF8 	1020
		LDWI 	2H 			//0EF9 	0002
		CLRF 	3AH 			//0EFA 	11BA
		STR 	43H 			//0EFB 	10C3
		LDWI 	90H 			//0EFC 	0090
		MOVLB 	1H 			//0EFD 	1021
		STR 	58H 			//0EFE 	10D8
		ORG		0EFFH
		LDWI 	1H 			//0EFF 	0001
		STR 	59H 			//0F00 	10D9
		LDWI 	58H 			//0F01 	0058
		MOVLB 	0H 			//0F02 	1020
		STR 	65H 			//0F03 	10E5
		LDWI 	2H 			//0F04 	0002
		STR 	66H 			//0F05 	10E6
		CLRF 	3BH 			//0F06 	11BB
		ORG		0F07H
		CLRF 	42H 			//0F07 	11C2
		MOVLB 	1H 			//0F08 	1021
		LDR 	41H, 0H 			//0F09 	1841
		MOVLB 	0H 			//0F0A 	1020
		STR 	42H 			//0F0B 	10C2
		MOVLB 	1H 			//0F0C 	1021
		LDR 	43H, 0H 			//0F0D 	1843
		MOVLB 	0H 			//0F0E 	1020
		ORG		0F0FH
		STR 	42H 			//0F0F 	10C2
		LDWI 	1EH 			//0F10 	001E
		MOVLB 	1H 			//0F11 	1021
		STR 	45H 			//0F12 	10C5
		CLRF 	46H 			//0F13 	11C6
		MOVLB 	0H 			//0F14 	1020
		CLRF 	4AH 			//0F15 	11CA
		CLRF 	3DH 			//0F16 	11BD
		ORG		0F17H
		CLRF 	42H 			//0F17 	11C2
		LDWI 	FH 			//0F18 	000F
		SUBWR 	42H, 0H 		//0F19 	1242
		BTSC 	3H, 0H 			//0F1A 	2803
		LJUMP 	732H 			//0F1B 	3F32
		LDWI 	FFH 			//0F1C 	00FF
		STR 	78H 			//0F1D 	10F8
		CLRF 	79H 			//0F1E 	11F9
		ORG		0F1FH
		INCR 	42H, 0H 		//0F1F 	1A42
		LJUMP 	723H 			//0F20 	3F23
		LSRF 	79H, 1H 		//0F21 	06F9
		RRR 	78H, 1H 			//0F22 	1CF8
		DECRSZ 	9H, 1H 		//0F23 	1B89
		LJUMP 	721H 			//0F24 	3F21
		BTSS 	78H, 0H 		//0F25 	2C78
		LJUMP 	730H 			//0F26 	3F30
		ORG		0F27H
		LDR 	4AH, 0H 			//0F27 	184A
		STR 	4BH 			//0F28 	10CB
		LDR 	4AH, 0H 			//0F29 	184A
		ADDWI 	A0H 			//0F2A 	0EA0
		STR 	6H 			//0F2B 	1086
		CLRF 	7H 			//0F2C 	1187
		LDR 	42H, 0H 			//0F2D 	1842
		STR 	1H 			//0F2E 	1081
		ORG		0F2FH
		INCR 	4AH, 1H 		//0F2F 	1ACA
		INCR 	42H, 1H 		//0F30 	1AC2
		LJUMP 	718H 			//0F31 	3F18
		MOVLB 	1H 			//0F32 	1021
		LDR 	20H, 0H 			//0F33 	1820
		MOVLB 	0H 			//0F34 	1020
		STR 	4AH 			//0F35 	10CA
		LCALL 	7F6H 			//0F36 	37F6
		ORG		0F37H
		MOVLP 	DH 			//0F37 	018D
		LCALL 	754H 			//0F38 	3754
		MOVLP 	DH 			//0F39 	018D
		LDWI 	F4H 			//0F3A 	00F4
		STR 	72H 			//0F3B 	10F2
		LDWI 	1H 			//0F3C 	0001
		STR 	73H 			//0F3D 	10F3
		LCALL 	754H 			//0F3E 	3754
		ORG		0F3FH
		MOVLP 	DH 			//0F3F 	018D
		LDR 	71H, 0H 			//0F40 	1871
		MOVLB 	1H 			//0F41 	1021
		STR 	57H 			//0F42 	10D7
		LDR 	70H, 0H 			//0F43 	1870
		STR 	56H 			//0F44 	10D6
		MOVLB 	0H 			//0F45 	1020
		LCALL 	7F6H 			//0F46 	37F6
		ORG		0F47H
		MOVLP 	DH 			//0F47 	018D
		LCALL 	754H 			//0F48 	3754
		MOVLP 	DH 			//0F49 	018D
		LDWI 	A0H 			//0F4A 	00A0
		STR 	72H 			//0F4B 	10F2
		LDWI 	FH 			//0F4C 	000F
		STR 	73H 			//0F4D 	10F3
		LCALL 	754H 			//0F4E 	3754
		ORG		0F4FH
		LDR 	71H, 0H 			//0F4F 	1871
		STR 	64H 			//0F50 	10E4
		LDR 	70H, 0H 			//0F51 	1870
		STR 	63H 			//0F52 	10E3
		RET 					//0F53 	1008
		CLRF 	75H 			//0F54 	11F5
		BTSS 	71H, 7H 		//0F55 	2FF1
		LJUMP 	75EH 			//0F56 	3F5E
		ORG		0F57H
		COMR 	70H, 1H 		//0F57 	19F0
		COMR 	71H, 1H 		//0F58 	19F1
		INCR 	70H, 1H 		//0F59 	1AF0
		BTSC 	3H, 2H 			//0F5A 	2903
		INCR 	71H, 1H 		//0F5B 	1AF1
		CLRF 	75H 			//0F5C 	11F5
		INCR 	75H, 1H 		//0F5D 	1AF5
		BTSS 	73H, 7H 		//0F5E 	2FF3
		ORG		0F5FH
		LJUMP 	767H 			//0F5F 	3F67
		COMR 	72H, 1H 		//0F60 	19F2
		COMR 	73H, 1H 		//0F61 	19F3
		INCR 	72H, 1H 		//0F62 	1AF2
		BTSC 	3H, 2H 			//0F63 	2903
		INCR 	73H, 1H 		//0F64 	1AF3
		LDWI 	1H 			//0F65 	0001
		XORWR 	75H, 1H 		//0F66 	16F5
		ORG		0F67H
		CLRF 	76H 			//0F67 	11F6
		CLRF 	77H 			//0F68 	11F7
		LDR 	71H, 0H 			//0F69 	1871
		IORWR 	70H, 0H 		//0F6A 	1470
		BTSC 	3H, 2H 			//0F6B 	2903
		LJUMP 	787H 			//0F6C 	3F87
		CLRF 	74H 			//0F6D 	11F4
		INCR 	74H, 1H 		//0F6E 	1AF4
		ORG		0F6FH
		BTSC 	71H, 7H 		//0F6F 	2BF1
		LJUMP 	774H 			//0F70 	3F74
		LSLF 	70H, 1H 		//0F71 	05F0
		RLR 	71H, 1H 			//0F72 	1DF1
		LJUMP 	76EH 			//0F73 	3F6E
		LSLF 	76H, 1H 		//0F74 	05F6
		RLR 	77H, 1H 			//0F75 	1DF7
		LDR 	71H, 0H 			//0F76 	1871
		ORG		0F77H
		SUBWR 	73H, 0H 		//0F77 	1273
		BTSS 	3H, 2H 			//0F78 	2D03
		LJUMP 	77CH 			//0F79 	3F7C
		LDR 	70H, 0H 			//0F7A 	1870
		SUBWR 	72H, 0H 		//0F7B 	1272
		BTSS 	3H, 0H 			//0F7C 	2C03
		LJUMP 	783H 			//0F7D 	3F83
		LDR 	70H, 0H 			//0F7E 	1870
		ORG		0F7FH
		SUBWR 	72H, 1H 		//0F7F 	12F2
		LDR 	71H, 0H 			//0F80 	1871
		SUBWFB 	73H, 1H 		//0F81 	0BF3
		BSR 	76H, 0H 			//0F82 	2476
		LSRF 	71H, 1H 		//0F83 	06F1
		RRR 	70H, 1H 			//0F84 	1CF0
		DECRSZ 	74H, 1H 		//0F85 	1BF4
		LJUMP 	774H 			//0F86 	3F74
		ORG		0F87H
		LDR 	75H, 0H 			//0F87 	1875
		BTSC 	3H, 2H 			//0F88 	2903
		LJUMP 	78FH 			//0F89 	3F8F
		COMR 	76H, 1H 		//0F8A 	19F6
		COMR 	77H, 1H 		//0F8B 	19F7
		INCR 	76H, 1H 		//0F8C 	1AF6
		BTSC 	3H, 2H 			//0F8D 	2903
		INCR 	77H, 1H 		//0F8E 	1AF7
		ORG		0F8FH
		LDR 	77H, 0H 			//0F8F 	1877
		STR 	71H 			//0F90 	10F1
		LDR 	76H, 0H 			//0F91 	1876
		STR 	70H 			//0F92 	10F0
		RET 					//0F93 	1008
		STR 	72H 			//0F94 	10F2

		//;TEST_62F08X_UART.C: 70: unsigned char a,b;
		//;TEST_62F08X_UART.C: 71: for(a=0;a<Time;a++)
		CLRF 	73H 			//0F95 	11F3
		LDR 	72H, 0H 			//0F96 	1872
		ORG		0F97H
		SUBWR 	73H, 0H 		//0F97 	1273
		BTSC 	3H, 0H 			//0F98 	2803
		RET 					//0F99 	1008

		//;TEST_62F08X_UART.C: 72: {
		//;TEST_62F08X_UART.C: 73: for(b=0;b<5;b++)
		CLRF 	74H 			//0F9A 	11F4

		//;TEST_62F08X_UART.C: 74: {
		//;TEST_62F08X_UART.C: 75: DelayUs(197);
		LDWI 	C5H 			//0F9B 	00C5
		LCALL 	7A5H 			//0F9C 	37A5
		MOVLP 	DH 			//0F9D 	018D
		LDWI 	5H 			//0F9E 	0005
		ORG		0F9FH
		INCR 	74H, 1H 		//0F9F 	1AF4
		SUBWR 	74H, 0H 		//0FA0 	1274
		BTSS 	3H, 0H 			//0FA1 	2C03
		LJUMP 	79BH 			//0FA2 	3F9B
		INCR 	73H, 1H 		//0FA3 	1AF3
		LJUMP 	796H 			//0FA4 	3F96
		STR 	70H 			//0FA5 	10F0

		//;TEST_62F08X_UART.C: 56: unsigned char a;
		//;TEST_62F08X_UART.C: 57: for(a=0;a<Time;a++)
		CLRF 	71H 			//0FA6 	11F1
		ORG		0FA7H
		LDR 	70H, 0H 			//0FA7 	1870
		SUBWR 	71H, 0H 		//0FA8 	1271
		BTSC 	3H, 0H 			//0FA9 	2803
		RET 					//0FAA 	1008

		//;TEST_62F08X_UART.C: 58: {
		//;TEST_62F08X_UART.C: 59: _nop();
		NOP 					//0FAB 	1000
		INCR 	71H, 1H 		//0FAC 	1AF1
		LJUMP 	7A7H 			//0FAD 	3FA7
		MOVLP 	0H 			//0FAE 	0180
		ORG		0FAFH
		LCALL 	5DH 			//0FAF 	305D
		MOVLP 	DH 			//0FB0 	018D
		LDR 	43H, 0H 			//0FB1 	1843
		XOWI 	2H 			//0FB2 	0A02
		BTSC 	3H, 2H 			//0FB3 	2903
		LJUMP 	7F0H 			//0FB4 	3FF0
		LDR 	3DH, 1H 			//0FB5 	18BD
		BTSS 	3H, 2H 			//0FB6 	2D03
		ORG		0FB7H
		LJUMP 	7F0H 			//0FB7 	3FF0
		LDR 	2FH, 0H 			//0FB8 	182F
		IORWR 	2EH, 0H 		//0FB9 	142E
		BTSC 	3H, 2H 			//0FBA 	2903
		LJUMP 	7E1H 			//0FBB 	3FE1
		CLRF 	43H 			//0FBC 	11C3
		MOVLB 	1H 			//0FBD 	1021
		INCR 	41H, 1H 		//0FBE 	1AC1
		ORG		0FBFH
		BTSC 	3H, 2H 			//0FBF 	2903
		INCR 	42H, 1H 		//0FC0 	1AC2
		LDWI 	0H 			//0FC1 	0000
		SUBWR 	42H, 0H 		//0FC2 	1242
		LDWI 	FH 			//0FC3 	000F
		BTSC 	3H, 2H 			//0FC4 	2903
		SUBWR 	41H, 0H 		//0FC5 	1241
		BTSS 	3H, 0H 			//0FC6 	2C03
		ORG		0FC7H
		LJUMP 	7DAH 			//0FC7 	3FDA
		CLRF 	41H 			//0FC8 	11C1
		CLRF 	42H 			//0FC9 	11C2
		INCR 	43H, 1H 		//0FCA 	1AC3
		BTSC 	3H, 2H 			//0FCB 	2903
		INCR 	44H, 1H 		//0FCC 	1AC4
		LDR 	46H, 0H 			//0FCD 	1846
		SUBWR 	44H, 0H 		//0FCE 	1244
		ORG		0FCFH
		BTSS 	3H, 2H 			//0FCF 	2D03
		LJUMP 	7D3H 			//0FD0 	3FD3
		LDR 	45H, 0H 			//0FD1 	1845
		SUBWR 	43H, 0H 		//0FD2 	1243
		BTSS 	3H, 0H 			//0FD3 	2C03
		LJUMP 	7DAH 			//0FD4 	3FDA
		LDWI 	2H 			//0FD5 	0002
		CLRF 	43H 			//0FD6 	11C3
		ORG		0FD7H
		CLRF 	44H 			//0FD7 	11C4
		MOVLB 	0H 			//0FD8 	1020
		STR 	43H 			//0FD9 	10C3
		MOVLB 	1H 			//0FDA 	1021
		CLRF 	58H 			//0FDB 	11D8
		CLRF 	59H 			//0FDC 	11D9
		MOVLB 	0H 			//0FDD 	1020
		CLRF 	65H 			//0FDE 	11E5
		ORG		0FDFH
		CLRF 	66H 			//0FDF 	11E6
		LJUMP 	7F0H 			//0FE0 	3FF0
		MOVLB 	1H 			//0FE1 	1021
		INCR 	58H, 1H 		//0FE2 	1AD8
		BTSC 	3H, 2H 			//0FE3 	2903
		INCR 	59H, 1H 		//0FE4 	1AD9
		MOVLB 	0H 			//0FE5 	1020
		INCR 	65H, 1H 		//0FE6 	1AE5
		ORG		0FE7H
		BTSC 	3H, 2H 			//0FE7 	2903
		INCR 	66H, 1H 		//0FE8 	1AE6
		CLRF 	43H 			//0FE9 	11C3
		INCR 	43H, 1H 		//0FEA 	1AC3
		MOVLB 	1H 			//0FEB 	1021
		CLRF 	41H 			//0FEC 	11C1
		CLRF 	42H 			//0FED 	11C2
		CLRF 	43H 			//0FEE 	11C3
		ORG		0FEFH
		CLRF 	44H 			//0FEF 	11C4
		MOVLB 	0H 			//0FF0 	1020
		LDR 	2FH, 0H 			//0FF1 	182F
		STR 	5CH 			//0FF2 	10DC
		LDR 	2EH, 0H 			//0FF3 	182E
		STR 	5BH 			//0FF4 	10DB
		RET 					//0FF5 	1008
		LDR 	4BH, 0H 			//0FF6 	184B
		ORG		0FF7H
		STR 	70H 			//0FF7 	10F0
		CLRF 	71H 			//0FF8 	11F1
		INCR 	70H, 1H 		//0FF9 	1AF0
		BTSC 	3H, 2H 			//0FFA 	2903
		INCR 	71H, 1H 		//0FFB 	1AF1
		LDWI 	42H 			//0FFC 	0042
		STR 	72H 			//0FFD 	10F2
		CLRF 	73H 			//0FFE 	11F3
		ORG		0FFFH
		RET 					//0FFF 	1008
		RETW 	0H 			//1000 	0400
		RETW 	1BH 			//1001 	041B
		RETW 	1BH 			//1002 	041B
		RETW 	14H 			//1003 	0414
		RETW 	10H 			//1004 	0410
		RETW 	0H 			//1005 	0400
		RETW 	0H 			//1006 	0400
		ORG		1007H
		RETW 	23H 			//1007 	0423
		RETW 	25H 			//1008 	0425
		RETW 	1AH 			//1009 	041A
		RETW 	17H 			//100A 	0417
		RETW 	0H 			//100B 	0400
		RETW 	0H 			//100C 	0400
		RETW 	1CH 			//100D 	041C
		RETW 	1EH 			//100E 	041E
		ORG		100FH
		RETW 	15H 			//100F 	0415
		RETW 	14H 			//1010 	0414
		RETW 	0H 			//1011 	0400
		RETW 	0H 			//1012 	0400
		RETW 	22H 			//1013 	0422
		RETW 	23H 			//1014 	0423
		RETW 	15H 			//1015 	0415
		RETW 	15H 			//1016 	0415
		ORG		1017H
		RETW 	0H 			//1017 	0400
		RETW 	0H 			//1018 	0400
		RETW 	25H 			//1019 	0425
		RETW 	28H 			//101A 	0428
		RETW 	18H 			//101B 	0418
		RETW 	16H 			//101C 	0416
		RETW 	0H 			//101D 	0400
		RETW 	0H 			//101E 	0400
		ORG		101FH
		RETW 	22H 			//101F 	0422
		RETW 	22H 			//1020 	0422
		RETW 	18H 			//1021 	0418
		RETW 	15H 			//1022 	0415
		RETW 	0H 			//1023 	0400
		RETW 	0H 			//1024 	0400
		RETW 	1FH 			//1025 	041F
		RETW 	22H 			//1026 	0422
		ORG		1027H
		RETW 	18H 			//1027 	0418
		RETW 	14H 			//1028 	0414
		RETW 	0H 			//1029 	0400
		RETW 	0H 			//102A 	0400
		RETW 	1AH 			//102B 	041A
		RETW 	1CH 			//102C 	041C
		RETW 	15H 			//102D 	0415
		RETW 	12H 			//102E 	0412
		ORG		102FH
		RETW 	0H 			//102F 	0400
		RETW 	0H 			//1030 	0400
		RETW 	0H 			//1031 	0400
		RETW 	0H 			//1032 	0400
		RETW 	0H 			//1033 	0400
		RETW 	0H 			//1034 	0400
		RETW 	0H 			//1035 	0400
		RETW 	0H 			//1036 	0400
		ORG		1037H
		RETW 	0H 			//1037 	0400
		RETW 	0H 			//1038 	0400
		RETW 	0H 			//1039 	0400
		RETW 	0H 			//103A 	0400
		RETW 	0H 			//103B 	0400
		RETW 	0H 			//103C 	0400
		RETW 	0H 			//103D 	0400
		RETW 	0H 			//103E 	0400
		ORG		103FH
		RETW 	0H 			//103F 	0400
		RETW 	0H 			//1040 	0400
		RETW 	0H 			//1041 	0400
		RETW 	0H 			//1042 	0400
		RETW 	0H 			//1043 	0400
		RETW 	0H 			//1044 	0400
		RETW 	0H 			//1045 	0400
		RETW 	0H 			//1046 	0400
		ORG		1047H
		RETW 	0H 			//1047 	0400
		RETW 	0H 			//1048 	0400
		RETW 	0H 			//1049 	0400
		RETW 	0H 			//104A 	0400
		RETW 	0H 			//104B 	0400
		RETW 	0H 			//104C 	0400
		RETW 	0H 			//104D 	0400
		RETW 	0H 			//104E 	0400
		ORG		104FH
		RETW 	0H 			//104F 	0400
		RETW 	0H 			//1050 	0400
		RETW 	0H 			//1051 	0400
		RETW 	0H 			//1052 	0400
		RETW 	0H 			//1053 	0400
		RETW 	0H 			//1054 	0400
		RETW 	0H 			//1055 	0400
		RETW 	0H 			//1056 	0400
		ORG		1057H
		RETW 	0H 			//1057 	0400
		RETW 	0H 			//1058 	0400
		RETW 	0H 			//1059 	0400
		RETW 	0H 			//105A 	0400
		RETW 	10H 			//105B 	0410
		RETW 	11H 			//105C 	0411
		RETW 	CH 			//105D 	040C
		RETW 	AH 			//105E 	040A
		ORG		105FH
		RETW 	0H 			//105F 	0400
		RETW 	0H 			//1060 	0400
		RETW 	15H 			//1061 	0415
		RETW 	16H 			//1062 	0416
		RETW 	10H 			//1063 	0410
		RETW 	EH 			//1064 	040E
		RETW 	0H 			//1065 	0400
		RETW 	0H 			//1066 	0400
		ORG		1067H
		RETW 	11H 			//1067 	0411
		RETW 	12H 			//1068 	0412
		RETW 	DH 			//1069 	040D
		RETW 	CH 			//106A 	040C
		RETW 	0H 			//106B 	0400
		RETW 	0H 			//106C 	0400
		RETW 	15H 			//106D 	0415
		RETW 	16H 			//106E 	0416
		ORG		106FH
		RETW 	DH 			//106F 	040D
		RETW 	DH 			//1070 	040D
		RETW 	0H 			//1071 	0400
		RETW 	0H 			//1072 	0400
		RETW 	16H 			//1073 	0416
		RETW 	18H 			//1074 	0418
		RETW 	FH 			//1075 	040F
		RETW 	DH 			//1076 	040D
		ORG		1077H
		RETW 	0H 			//1077 	0400
		RETW 	0H 			//1078 	0400
		RETW 	15H 			//1079 	0415
		RETW 	15H 			//107A 	0415
		RETW 	FH 			//107B 	040F
		RETW 	DH 			//107C 	040D
		RETW 	0H 			//107D 	0400
		RETW 	0H 			//107E 	0400
		ORG		107FH
		RETW 	13H 			//107F 	0413
		RETW 	15H 			//1080 	0415
		RETW 	EH 			//1081 	040E
		RETW 	CH 			//1082 	040C
		RETW 	0H 			//1083 	0400
		RETW 	0H 			//1084 	0400
		RETW 	10H 			//1085 	0410
		RETW 	11H 			//1086 	0411
		ORG		1087H
		RETW 	DH 			//1087 	040D
		RETW 	BH 			//1088 	040B
		RETW 	0H 			//1089 	0400
		RETW 	0H 			//108A 	0400
		RETW 	0H 			//108B 	0400
		RETW 	0H 			//108C 	0400
		RETW 	0H 			//108D 	0400
		RETW 	0H 			//108E 	0400
		ORG		108FH
		RETW 	0H 			//108F 	0400
		RETW 	0H 			//1090 	0400
		RETW 	0H 			//1091 	0400
		RETW 	0H 			//1092 	0400
		RETW 	0H 			//1093 	0400
		RETW 	0H 			//1094 	0400
		RETW 	0H 			//1095 	0400
		RETW 	0H 			//1096 	0400
		ORG		1097H
		RETW 	0H 			//1097 	0400
		RETW 	0H 			//1098 	0400
		RETW 	0H 			//1099 	0400
		RETW 	0H 			//109A 	0400
		RETW 	0H 			//109B 	0400
		RETW 	0H 			//109C 	0400
		RETW 	0H 			//109D 	0400
		RETW 	0H 			//109E 	0400
		ORG		109FH
		RETW 	0H 			//109F 	0400
		RETW 	0H 			//10A0 	0400
		RETW 	0H 			//10A1 	0400
		RETW 	0H 			//10A2 	0400
		RETW 	0H 			//10A3 	0400
		RETW 	0H 			//10A4 	0400
		RETW 	0H 			//10A5 	0400
		RETW 	0H 			//10A6 	0400
		ORG		10A7H
		RETW 	0H 			//10A7 	0400
		RETW 	0H 			//10A8 	0400
		RETW 	0H 			//10A9 	0400
		RETW 	0H 			//10AA 	0400
		RETW 	0H 			//10AB 	0400
		RETW 	0H 			//10AC 	0400
		RETW 	0H 			//10AD 	0400
		RETW 	0H 			//10AE 	0400
		ORG		10AFH
		RETW 	0H 			//10AF 	0400
		RETW 	0H 			//10B0 	0400
		RETW 	0H 			//10B1 	0400
		RETW 	0H 			//10B2 	0400
		RETW 	0H 			//10B3 	0400
		RETW 	0H 			//10B4 	0400
		RETW 	FFH 			//10B5 	04FF
		RETW 	0H 			//10B6 	0400
		ORG		10B7H
		RETW 	1EH 			//10B7 	041E
		RETW 	0H 			//10B8 	0400
		RETW 	FH 			//10B9 	040F
			END
